                                      1 ;--------------------------------------------------------
                                      2 ; File Created by SDCC : free open source ISO C Compiler
                                      3 ; Version 4.5.1 #15267 (Linux)
                                      4 ;--------------------------------------------------------
                                      5 	.module music
                                      6 	
                                      7 ;--------------------------------------------------------
                                      8 ; Public variables in this module
                                      9 ;--------------------------------------------------------
                                     10 	.globl _music_enabled
                                     11 	.globl _victory_bass
                                     12 	.globl _victory_mel
                                     13 	.globl _title_bass
                                     14 	.globl _title_mel
                                     15 	.globl _go_drum
                                     16 	.globl _go_arp
                                     17 	.globl _go_bass
                                     18 	.globl _go_mel
                                     19 	.globl _drum_parts
                                     20 	.globl _trk_drum_3
                                     21 	.globl _trk_drum_2
                                     22 	.globl _trk_drum_1
                                     23 	.globl _trk_drum_0
                                     24 	.globl _wave_ram
                                     25 	.globl _bass_parts
                                     26 	.globl _trk_bass_3
                                     27 	.globl _trk_bass_2
                                     28 	.globl _trk_bass_1
                                     29 	.globl _trk_bass_0
                                     30 	.globl _mel_parts
                                     31 	.globl _trk_mel_3
                                     32 	.globl _trk_mel_2
                                     33 	.globl _trk_mel_1
                                     34 	.globl _trk_mel_0
                                     35 	.globl _arp_parts
                                     36 	.globl _trk_arp_3
                                     37 	.globl _trk_arp_2
                                     38 	.globl _trk_arp_1
                                     39 	.globl _trk_arp_0
                                     40 	.globl _toggle_music
                                     41 	.globl _play_sfx_moan
                                     42 	.globl _play_sfx_plop
                                     43 	.globl _init_music
                                     44 	.globl _update_music
                                     45 	.globl _play_game_over_music
                                     46 	.globl _play_sfx_explosion
                                     47 	.globl _play_sfx_bomb_drop
                                     48 	.globl _play_title_music
                                     49 	.globl _play_victory_music
                                     50 ;--------------------------------------------------------
                                     51 ; special function registers
                                     52 ;--------------------------------------------------------
                                     53 	.area _HRAM
                                     54 ;--------------------------------------------------------
                                     55 ; ram data
                                     56 ;--------------------------------------------------------
                                     57 	.area _DATA
                                     58 ;--------------------------------------------------------
                                     59 ; ram data
                                     60 ;--------------------------------------------------------
                                     61 	.area _INITIALIZED
    00000000                         62 _tick:
    00000000                         63 	.ds 2
    00000002                         64 _frame_counter:
    00000002                         65 	.ds 1
    00000003                         66 _sfx_timer:
    00000003                         67 	.ds 1
    00000004                         68 _game_over_mode:
    00000004                         69 	.ds 1
    00000005                         70 _music_enabled::
    00000005                         71 	.ds 1
                                     72 ;--------------------------------------------------------
                                     73 ; absolute external ram data
                                     74 ;--------------------------------------------------------
                                     75 	.area _DABS (ABS)
                                     76 ;--------------------------------------------------------
                                     77 ; global & static initialisations
                                     78 ;--------------------------------------------------------
                                     79 	.area _HOME
                                     80 	.area _GSINIT
                                     81 	.area _GSFINAL
                                     82 	.area _GSINIT
                                     83 ;--------------------------------------------------------
                                     84 ; Home
                                     85 ;--------------------------------------------------------
                                     86 	.area _HOME
                                     87 	.area _HOME
                                     88 ;--------------------------------------------------------
                                     89 ; code
                                     90 ;--------------------------------------------------------
                                     91 	.area _CODE
                                     92 ;src/music.c:279: void toggle_music(void) {
                                     93 ;	---------------------------------
                                     94 ; Function toggle_music
                                     95 ; ---------------------------------
    00000000                         96 _toggle_music::
                                     97 ;src/music.c:280: music_enabled = !music_enabled;
    00000000 21r05r00         [12]   98 	ld	hl, #_music_enabled
    00000003 7E               [ 8]   99 	ld	a, (hl)
    00000004 D6 01            [ 8]  100 	sub	a, #0x01
    00000006 3E 00            [ 8]  101 	ld	a, #0x00
    00000008 17               [ 4]  102 	rla
    00000009 77               [ 8]  103 	ld	(hl), a
                                    104 ;src/music.c:281: if (!music_enabled) {
    0000000A 7E               [ 8]  105 	ld	a, (hl)
                                    106 ;src/music.c:283: NR12_REG = 0x00; NR14_REG = 0x80;
    0000000B B7               [ 4]  107 	or	a, a
    0000000C C0               [20]  108 	ret	NZ
    0000000D E0r00            [12]  109 	ldh	(_NR12_REG + 0), a
    0000000F 3E 80            [ 8]  110 	ld	a, #0x80
    00000011 E0r00            [12]  111 	ldh	(_NR14_REG + 0), a
                                    112 ;src/music.c:284: NR22_REG = 0x00; NR24_REG = 0x80;
    00000013 AF               [ 4]  113 	xor	a, a
    00000014 E0r00            [12]  114 	ldh	(_NR22_REG + 0), a
    00000016 3E 80            [ 8]  115 	ld	a, #0x80
    00000018 E0r00            [12]  116 	ldh	(_NR24_REG + 0), a
                                    117 ;src/music.c:285: NR32_REG = 0x00; NR34_REG = 0x80;
    0000001A AF               [ 4]  118 	xor	a, a
    0000001B E0r00            [12]  119 	ldh	(_NR32_REG + 0), a
    0000001D 3E 80            [ 8]  120 	ld	a, #0x80
    0000001F E0r00            [12]  121 	ldh	(_NR34_REG + 0), a
                                    122 ;src/music.c:286: NR42_REG = 0x00; NR44_REG = 0x80;
    00000021 AF               [ 4]  123 	xor	a, a
    00000022 E0r00            [12]  124 	ldh	(_NR42_REG + 0), a
    00000024 3E 80            [ 8]  125 	ld	a, #0x80
    00000026 E0r00            [12]  126 	ldh	(_NR44_REG + 0), a
                                    127 ;src/music.c:288: }
    00000028 C9               [16]  128 	ret
    00000029                        129 _trk_arp_0:
    00000029 0B 06                  130 	.dw #0x060b
    0000002B 72 06                  131 	.dw #0x0672
    0000002D B2 06                  132 	.dw #0x06b2
    0000002F 72 06                  133 	.dw #0x0672
    00000031 0B 06                  134 	.dw #0x060b
    00000033 72 06                  135 	.dw #0x0672
    00000035 B2 06                  136 	.dw #0x06b2
    00000037 72 06                  137 	.dw #0x0672
    00000039 0B 06                  138 	.dw #0x060b
    0000003B 72 06                  139 	.dw #0x0672
    0000003D B2 06                  140 	.dw #0x06b2
    0000003F 72 06                  141 	.dw #0x0672
    00000041 0B 06                  142 	.dw #0x060b
    00000043 72 06                  143 	.dw #0x0672
    00000045 B2 06                  144 	.dw #0x06b2
    00000047 72 06                  145 	.dw #0x0672
    00000049 89 06                  146 	.dw #0x0689
    0000004B D6 06                  147 	.dw #0x06d6
    0000004D 06 07                  148 	.dw #0x0706
    0000004F D6 06                  149 	.dw #0x06d6
    00000051 89 06                  150 	.dw #0x0689
    00000053 D6 06                  151 	.dw #0x06d6
    00000055 06 07                  152 	.dw #0x0706
    00000057 D6 06                  153 	.dw #0x06d6
    00000059 89 06                  154 	.dw #0x0689
    0000005B D6 06                  155 	.dw #0x06d6
    0000005D 06 07                  156 	.dw #0x0706
    0000005F D6 06                  157 	.dw #0x06d6
    00000061 89 06                  158 	.dw #0x0689
    00000063 D6 06                  159 	.dw #0x06d6
    00000065 06 07                  160 	.dw #0x0706
    00000067 D6 06                  161 	.dw #0x06d6
    00000069 B2 06                  162 	.dw #0x06b2
    0000006B F7 06                  163 	.dw #0x06f7
    0000006D 41 06                  164 	.dw #0x0641
    0000006F F7 06                  165 	.dw #0x06f7
    00000071 B2 06                  166 	.dw #0x06b2
    00000073 F7 06                  167 	.dw #0x06f7
    00000075 41 06                  168 	.dw #0x0641
    00000077 F7 06                  169 	.dw #0x06f7
    00000079 B2 06                  170 	.dw #0x06b2
    0000007B F7 06                  171 	.dw #0x06f7
    0000007D 41 06                  172 	.dw #0x0641
    0000007F F7 06                  173 	.dw #0x06f7
    00000081 B2 06                  174 	.dw #0x06b2
    00000083 F7 06                  175 	.dw #0x06f7
    00000085 41 06                  176 	.dw #0x0641
    00000087 F7 06                  177 	.dw #0x06f7
    00000089 0B 06                  178 	.dw #0x060b
    0000008B 72 06                  179 	.dw #0x0672
    0000008D B2 06                  180 	.dw #0x06b2
    0000008F 72 06                  181 	.dw #0x0672
    00000091 0B 06                  182 	.dw #0x060b
    00000093 72 06                  183 	.dw #0x0672
    00000095 B2 06                  184 	.dw #0x06b2
    00000097 72 06                  185 	.dw #0x0672
    00000099 0B 06                  186 	.dw #0x060b
    0000009B 72 06                  187 	.dw #0x0672
    0000009D B2 06                  188 	.dw #0x06b2
    0000009F 06 07                  189 	.dw #0x0706
    000000A1 72 06                  190 	.dw #0x0672
    000000A3 B2 06                  191 	.dw #0x06b2
    000000A5 06 07                  192 	.dw #0x0706
    000000A7 72 06                  193 	.dw #0x0672
    000000A9                        194 _trk_arp_1:
    000000A9 0B 06                  195 	.dw #0x060b
    000000AB 72 06                  196 	.dw #0x0672
    000000AD B2 06                  197 	.dw #0x06b2
    000000AF 72 06                  198 	.dw #0x0672
    000000B1 0B 06                  199 	.dw #0x060b
    000000B3 72 06                  200 	.dw #0x0672
    000000B5 B2 06                  201 	.dw #0x06b2
    000000B7 72 06                  202 	.dw #0x0672
    000000B9 0B 06                  203 	.dw #0x060b
    000000BB 72 06                  204 	.dw #0x0672
    000000BD B2 06                  205 	.dw #0x06b2
    000000BF 72 06                  206 	.dw #0x0672
    000000C1 0B 06                  207 	.dw #0x060b
    000000C3 72 06                  208 	.dw #0x0672
    000000C5 B2 06                  209 	.dw #0x06b2
    000000C7 72 06                  210 	.dw #0x0672
    000000C9 89 06                  211 	.dw #0x0689
    000000CB D6 06                  212 	.dw #0x06d6
    000000CD 06 07                  213 	.dw #0x0706
    000000CF D6 06                  214 	.dw #0x06d6
    000000D1 89 06                  215 	.dw #0x0689
    000000D3 D6 06                  216 	.dw #0x06d6
    000000D5 06 07                  217 	.dw #0x0706
    000000D7 D6 06                  218 	.dw #0x06d6
    000000D9 89 06                  219 	.dw #0x0689
    000000DB D6 06                  220 	.dw #0x06d6
    000000DD 06 07                  221 	.dw #0x0706
    000000DF D6 06                  222 	.dw #0x06d6
    000000E1 89 06                  223 	.dw #0x0689
    000000E3 D6 06                  224 	.dw #0x06d6
    000000E5 06 07                  225 	.dw #0x0706
    000000E7 D6 06                  226 	.dw #0x06d6
    000000E9 B2 06                  227 	.dw #0x06b2
    000000EB F7 06                  228 	.dw #0x06f7
    000000ED 41 06                  229 	.dw #0x0641
    000000EF F7 06                  230 	.dw #0x06f7
    000000F1 B2 06                  231 	.dw #0x06b2
    000000F3 F7 06                  232 	.dw #0x06f7
    000000F5 41 06                  233 	.dw #0x0641
    000000F7 F7 06                  234 	.dw #0x06f7
    000000F9 B2 06                  235 	.dw #0x06b2
    000000FB F7 06                  236 	.dw #0x06f7
    000000FD 41 06                  237 	.dw #0x0641
    000000FF F7 06                  238 	.dw #0x06f7
    00000101 B2 06                  239 	.dw #0x06b2
    00000103 F7 06                  240 	.dw #0x06f7
    00000105 41 06                  241 	.dw #0x0641
    00000107 F7 06                  242 	.dw #0x06f7
    00000109 0B 06                  243 	.dw #0x060b
    0000010B 72 06                  244 	.dw #0x0672
    0000010D B2 06                  245 	.dw #0x06b2
    0000010F 72 06                  246 	.dw #0x0672
    00000111 0B 06                  247 	.dw #0x060b
    00000113 72 06                  248 	.dw #0x0672
    00000115 B2 06                  249 	.dw #0x06b2
    00000117 72 06                  250 	.dw #0x0672
    00000119 0B 06                  251 	.dw #0x060b
    0000011B 72 06                  252 	.dw #0x0672
    0000011D B2 06                  253 	.dw #0x06b2
    0000011F 72 06                  254 	.dw #0x0672
    00000121 0B 06                  255 	.dw #0x060b
    00000123 72 06                  256 	.dw #0x0672
    00000125 B2 06                  257 	.dw #0x06b2
    00000127 72 06                  258 	.dw #0x0672
    00000129                        259 _trk_arp_2:
    00000129 89 06                  260 	.dw #0x0689
    0000012B D6 06                  261 	.dw #0x06d6
    0000012D 06 07                  262 	.dw #0x0706
    0000012F D6 06                  263 	.dw #0x06d6
    00000131 89 06                  264 	.dw #0x0689
    00000133 D6 06                  265 	.dw #0x06d6
    00000135 06 07                  266 	.dw #0x0706
    00000137 D6 06                  267 	.dw #0x06d6
    00000139 89 06                  268 	.dw #0x0689
    0000013B D6 06                  269 	.dw #0x06d6
    0000013D 06 07                  270 	.dw #0x0706
    0000013F D6 06                  271 	.dw #0x06d6
    00000141 89 06                  272 	.dw #0x0689
    00000143 D6 06                  273 	.dw #0x06d6
    00000145 06 07                  274 	.dw #0x0706
    00000147 D6 06                  275 	.dw #0x06d6
    00000149 B2 06                  276 	.dw #0x06b2
    0000014B F7 06                  277 	.dw #0x06f7
    0000014D 41 06                  278 	.dw #0x0641
    0000014F F7 06                  279 	.dw #0x06f7
    00000151 B2 06                  280 	.dw #0x06b2
    00000153 F7 06                  281 	.dw #0x06f7
    00000155 41 06                  282 	.dw #0x0641
    00000157 F7 06                  283 	.dw #0x06f7
    00000159 B2 06                  284 	.dw #0x06b2
    0000015B F7 06                  285 	.dw #0x06f7
    0000015D 41 06                  286 	.dw #0x0641
    0000015F F7 06                  287 	.dw #0x06f7
    00000161 B2 06                  288 	.dw #0x06b2
    00000163 F7 06                  289 	.dw #0x06f7
    00000165 41 06                  290 	.dw #0x0641
    00000167 F7 06                  291 	.dw #0x06f7
    00000169 72 06                  292 	.dw #0x0672
    0000016B C6 06                  293 	.dw #0x06c6
    0000016D F7 06                  294 	.dw #0x06f7
    0000016F C6 06                  295 	.dw #0x06c6
    00000171 72 06                  296 	.dw #0x0672
    00000173 C6 06                  297 	.dw #0x06c6
    00000175 F7 06                  298 	.dw #0x06f7
    00000177 C6 06                  299 	.dw #0x06c6
    00000179 72 06                  300 	.dw #0x0672
    0000017B C6 06                  301 	.dw #0x06c6
    0000017D F7 06                  302 	.dw #0x06f7
    0000017F C6 06                  303 	.dw #0x06c6
    00000181 72 06                  304 	.dw #0x0672
    00000183 C6 06                  305 	.dw #0x06c6
    00000185 F7 06                  306 	.dw #0x06f7
    00000187 C6 06                  307 	.dw #0x06c6
    00000189 D6 06                  308 	.dw #0x06d6
    0000018B 06 07                  309 	.dw #0x0706
    0000018D 39 07                  310 	.dw #0x0739
    0000018F 06 07                  311 	.dw #0x0706
    00000191 D6 06                  312 	.dw #0x06d6
    00000193 06 07                  313 	.dw #0x0706
    00000195 39 07                  314 	.dw #0x0739
    00000197 06 07                  315 	.dw #0x0706
    00000199 D6 06                  316 	.dw #0x06d6
    0000019B 06 07                  317 	.dw #0x0706
    0000019D 39 07                  318 	.dw #0x0739
    0000019F 06 07                  319 	.dw #0x0706
    000001A1 D6 06                  320 	.dw #0x06d6
    000001A3 06 07                  321 	.dw #0x0706
    000001A5 39 07                  322 	.dw #0x0739
    000001A7 06 07                  323 	.dw #0x0706
    000001A9                        324 _trk_arp_3:
    000001A9 89 06                  325 	.dw #0x0689
    000001AB D6 06                  326 	.dw #0x06d6
    000001AD 06 07                  327 	.dw #0x0706
    000001AF D6 06                  328 	.dw #0x06d6
    000001B1 89 06                  329 	.dw #0x0689
    000001B3 D6 06                  330 	.dw #0x06d6
    000001B5 06 07                  331 	.dw #0x0706
    000001B7 D6 06                  332 	.dw #0x06d6
    000001B9 89 06                  333 	.dw #0x0689
    000001BB D6 06                  334 	.dw #0x06d6
    000001BD 06 07                  335 	.dw #0x0706
    000001BF D6 06                  336 	.dw #0x06d6
    000001C1 89 06                  337 	.dw #0x0689
    000001C3 D6 06                  338 	.dw #0x06d6
    000001C5 06 07                  339 	.dw #0x0706
    000001C7 D6 06                  340 	.dw #0x06d6
    000001C9 B2 06                  341 	.dw #0x06b2
    000001CB F7 06                  342 	.dw #0x06f7
    000001CD 41 06                  343 	.dw #0x0641
    000001CF F7 06                  344 	.dw #0x06f7
    000001D1 B2 06                  345 	.dw #0x06b2
    000001D3 F7 06                  346 	.dw #0x06f7
    000001D5 41 06                  347 	.dw #0x0641
    000001D7 F7 06                  348 	.dw #0x06f7
    000001D9 B2 06                  349 	.dw #0x06b2
    000001DB F7 06                  350 	.dw #0x06f7
    000001DD 41 06                  351 	.dw #0x0641
    000001DF F7 06                  352 	.dw #0x06f7
    000001E1 B2 06                  353 	.dw #0x06b2
    000001E3 F7 06                  354 	.dw #0x06f7
    000001E5 41 06                  355 	.dw #0x0641
    000001E7 F7 06                  356 	.dw #0x06f7
    000001E9 0B 06                  357 	.dw #0x060b
    000001EB 72 06                  358 	.dw #0x0672
    000001ED B2 06                  359 	.dw #0x06b2
    000001EF 72 06                  360 	.dw #0x0672
    000001F1 0B 06                  361 	.dw #0x060b
    000001F3 72 06                  362 	.dw #0x0672
    000001F5 B2 06                  363 	.dw #0x06b2
    000001F7 72 06                  364 	.dw #0x0672
    000001F9 0B 06                  365 	.dw #0x060b
    000001FB 72 06                  366 	.dw #0x0672
    000001FD B2 06                  367 	.dw #0x06b2
    000001FF 72 06                  368 	.dw #0x0672
    00000201 0B 06                  369 	.dw #0x060b
    00000203 72 06                  370 	.dw #0x0672
    00000205 B2 06                  371 	.dw #0x06b2
    00000207 72 06                  372 	.dw #0x0672
    00000209 0B 06                  373 	.dw #0x060b
    0000020B 72 06                  374 	.dw #0x0672
    0000020D B2 06                  375 	.dw #0x06b2
    0000020F 72 06                  376 	.dw #0x0672
    00000211 0B 06                  377 	.dw #0x060b
    00000213 72 06                  378 	.dw #0x0672
    00000215 B2 06                  379 	.dw #0x06b2
    00000217 72 06                  380 	.dw #0x0672
    00000219 0B 06                  381 	.dw #0x060b
    0000021B 72 06                  382 	.dw #0x0672
    0000021D B2 06                  383 	.dw #0x06b2
    0000021F 06 07                  384 	.dw #0x0706
    00000221 72 06                  385 	.dw #0x0672
    00000223 B2 06                  386 	.dw #0x06b2
    00000225 06 07                  387 	.dw #0x0706
    00000227 72 06                  388 	.dw #0x0672
    00000229                        389 _arp_parts:
    00000229r29r00                  390 	.dw _trk_arp_0
    0000022BrA9r00                  391 	.dw _trk_arp_1
    0000022Dr29r01                  392 	.dw _trk_arp_2
    0000022FrA9r01                  393 	.dw _trk_arp_3
    00000231                        394 _trk_mel_0:
    00000231 39 07                  395 	.dw #0x0739
    00000233 00 00                  396 	.dw #0x0000
    00000235 21 07                  397 	.dw #0x0721
    00000237 06 07                  398 	.dw #0x0706
    00000239 00 00                  399 	.dw #0x0000
    0000023B 59 07                  400 	.dw #0x0759
    0000023D 00 00                  401 	.dw #0x0000
    0000023F 00 00                  402 	.dw #0x0000
    00000241 39 07                  403 	.dw #0x0739
    00000243 00 00                  404 	.dw #0x0000
    00000245 21 07                  405 	.dw #0x0721
    00000247 06 07                  406 	.dw #0x0706
    00000249 00 00                  407 	.dw #0x0000
    0000024B 59 07                  408 	.dw #0x0759
    0000024D 00 00                  409 	.dw #0x0000
    0000024F 00 00                  410 	.dw #0x0000
    00000251 44 07                  411 	.dw #0x0744
    00000253 00 00                  412 	.dw #0x0000
    00000255 39 07                  413 	.dw #0x0739
    00000257 21 07                  414 	.dw #0x0721
    00000259 00 00                  415 	.dw #0x0000
    0000025B 6B 07                  416 	.dw #0x076b
    0000025D 00 00                  417 	.dw #0x0000
    0000025F 00 00                  418 	.dw #0x0000
    00000261 44 07                  419 	.dw #0x0744
    00000263 00 00                  420 	.dw #0x0000
    00000265 39 07                  421 	.dw #0x0739
    00000267 21 07                  422 	.dw #0x0721
    00000269 00 00                  423 	.dw #0x0000
    0000026B 6B 07                  424 	.dw #0x076b
    0000026D 00 00                  425 	.dw #0x0000
    0000026F 00 00                  426 	.dw #0x0000
    00000271 59 07                  427 	.dw #0x0759
    00000273 00 00                  428 	.dw #0x0000
    00000275 44 07                  429 	.dw #0x0744
    00000277 39 07                  430 	.dw #0x0739
    00000279 00 00                  431 	.dw #0x0000
    0000027B 7B 07                  432 	.dw #0x077b
    0000027D 00 00                  433 	.dw #0x0000
    0000027F 00 00                  434 	.dw #0x0000
    00000281 59 07                  435 	.dw #0x0759
    00000283 00 00                  436 	.dw #0x0000
    00000285 44 07                  437 	.dw #0x0744
    00000287 39 07                  438 	.dw #0x0739
    00000289 00 00                  439 	.dw #0x0000
    0000028B 7B 07                  440 	.dw #0x077b
    0000028D 00 00                  441 	.dw #0x0000
    0000028F 00 00                  442 	.dw #0x0000
    00000291 83 07                  443 	.dw #0x0783
    00000293 00 00                  444 	.dw #0x0000
    00000295 7B 07                  445 	.dw #0x077b
    00000297 6B 07                  446 	.dw #0x076b
    00000299 59 07                  447 	.dw #0x0759
    0000029B 44 07                  448 	.dw #0x0744
    0000029D 39 07                  449 	.dw #0x0739
    0000029F 21 07                  450 	.dw #0x0721
    000002A1 06 07                  451 	.dw #0x0706
    000002A3 00 00                  452 	.dw #0x0000
    000002A5 00 00                  453 	.dw #0x0000
    000002A7 00 00                  454 	.dw #0x0000
    000002A9 00 00                  455 	.dw #0x0000
    000002AB 00 00                  456 	.dw #0x0000
    000002AD 00 00                  457 	.dw #0x0000
    000002AF 00 00                  458 	.dw #0x0000
    000002B1                        459 _trk_mel_1:
    000002B1 39 07                  460 	.dw #0x0739
    000002B3 00 00                  461 	.dw #0x0000
    000002B5 39 07                  462 	.dw #0x0739
    000002B7 00 00                  463 	.dw #0x0000
    000002B9 21 07                  464 	.dw #0x0721
    000002BB 06 07                  465 	.dw #0x0706
    000002BD 59 07                  466 	.dw #0x0759
    000002BF 00 00                  467 	.dw #0x0000
    000002C1 39 07                  468 	.dw #0x0739
    000002C3 00 00                  469 	.dw #0x0000
    000002C5 21 07                  470 	.dw #0x0721
    000002C7 06 07                  471 	.dw #0x0706
    000002C9 00 00                  472 	.dw #0x0000
    000002CB 59 07                  473 	.dw #0x0759
    000002CD 00 00                  474 	.dw #0x0000
    000002CF 00 00                  475 	.dw #0x0000
    000002D1 44 07                  476 	.dw #0x0744
    000002D3 00 00                  477 	.dw #0x0000
    000002D5 44 07                  478 	.dw #0x0744
    000002D7 00 00                  479 	.dw #0x0000
    000002D9 39 07                  480 	.dw #0x0739
    000002DB 21 07                  481 	.dw #0x0721
    000002DD 6B 07                  482 	.dw #0x076b
    000002DF 00 00                  483 	.dw #0x0000
    000002E1 44 07                  484 	.dw #0x0744
    000002E3 00 00                  485 	.dw #0x0000
    000002E5 39 07                  486 	.dw #0x0739
    000002E7 21 07                  487 	.dw #0x0721
    000002E9 00 00                  488 	.dw #0x0000
    000002EB 6B 07                  489 	.dw #0x076b
    000002ED 00 00                  490 	.dw #0x0000
    000002EF 00 00                  491 	.dw #0x0000
    000002F1 59 07                  492 	.dw #0x0759
    000002F3 00 00                  493 	.dw #0x0000
    000002F5 59 07                  494 	.dw #0x0759
    000002F7 00 00                  495 	.dw #0x0000
    000002F9 44 07                  496 	.dw #0x0744
    000002FB 39 07                  497 	.dw #0x0739
    000002FD 7B 07                  498 	.dw #0x077b
    000002FF 00 00                  499 	.dw #0x0000
    00000301 59 07                  500 	.dw #0x0759
    00000303 00 00                  501 	.dw #0x0000
    00000305 44 07                  502 	.dw #0x0744
    00000307 39 07                  503 	.dw #0x0739
    00000309 00 00                  504 	.dw #0x0000
    0000030B 7B 07                  505 	.dw #0x077b
    0000030D 00 00                  506 	.dw #0x0000
    0000030F 00 00                  507 	.dw #0x0000
    00000311 83 07                  508 	.dw #0x0783
    00000313 59 07                  509 	.dw #0x0759
    00000315 6B 07                  510 	.dw #0x076b
    00000317 7B 07                  511 	.dw #0x077b
    00000319 83 07                  512 	.dw #0x0783
    0000031B 00 00                  513 	.dw #0x0000
    0000031D 00 00                  514 	.dw #0x0000
    0000031F 00 00                  515 	.dw #0x0000
    00000321 06 07                  516 	.dw #0x0706
    00000323 00 00                  517 	.dw #0x0000
    00000325 00 00                  518 	.dw #0x0000
    00000327 00 00                  519 	.dw #0x0000
    00000329 00 00                  520 	.dw #0x0000
    0000032B 00 00                  521 	.dw #0x0000
    0000032D 00 00                  522 	.dw #0x0000
    0000032F 00 00                  523 	.dw #0x0000
    00000331                        524 _trk_mel_2:
    00000331 6B 07                  525 	.dw #0x076b
    00000333 00 00                  526 	.dw #0x0000
    00000335 83 07                  527 	.dw #0x0783
    00000337 6B 07                  528 	.dw #0x076b
    00000339 44 07                  529 	.dw #0x0744
    0000033B 00 00                  530 	.dw #0x0000
    0000033D 00 00                  531 	.dw #0x0000
    0000033F 00 00                  532 	.dw #0x0000
    00000341 6B 07                  533 	.dw #0x076b
    00000343 00 00                  534 	.dw #0x0000
    00000345 83 07                  535 	.dw #0x0783
    00000347 6B 07                  536 	.dw #0x076b
    00000349 44 07                  537 	.dw #0x0744
    0000034B 00 00                  538 	.dw #0x0000
    0000034D 00 00                  539 	.dw #0x0000
    0000034F 00 00                  540 	.dw #0x0000
    00000351 7B 07                  541 	.dw #0x077b
    00000353 00 00                  542 	.dw #0x0000
    00000355 90 07                  543 	.dw #0x0790
    00000357 7B 07                  544 	.dw #0x077b
    00000359 59 07                  545 	.dw #0x0759
    0000035B 00 00                  546 	.dw #0x0000
    0000035D 00 00                  547 	.dw #0x0000
    0000035F 00 00                  548 	.dw #0x0000
    00000361 7B 07                  549 	.dw #0x077b
    00000363 00 00                  550 	.dw #0x0000
    00000365 90 07                  551 	.dw #0x0790
    00000367 7B 07                  552 	.dw #0x077b
    00000369 59 07                  553 	.dw #0x0759
    0000036B 00 00                  554 	.dw #0x0000
    0000036D 00 00                  555 	.dw #0x0000
    0000036F 00 00                  556 	.dw #0x0000
    00000371 64 07                  557 	.dw #0x0764
    00000373 00 00                  558 	.dw #0x0000
    00000375 7B 07                  559 	.dw #0x077b
    00000377 64 07                  560 	.dw #0x0764
    00000379 39 07                  561 	.dw #0x0739
    0000037B 00 00                  562 	.dw #0x0000
    0000037D 00 00                  563 	.dw #0x0000
    0000037F 00 00                  564 	.dw #0x0000
    00000381 64 07                  565 	.dw #0x0764
    00000383 00 00                  566 	.dw #0x0000
    00000385 7B 07                  567 	.dw #0x077b
    00000387 64 07                  568 	.dw #0x0764
    00000389 39 07                  569 	.dw #0x0739
    0000038B 00 00                  570 	.dw #0x0000
    0000038D 00 00                  571 	.dw #0x0000
    0000038F 00 00                  572 	.dw #0x0000
    00000391 6B 07                  573 	.dw #0x076b
    00000393 00 00                  574 	.dw #0x0000
    00000395 83 07                  575 	.dw #0x0783
    00000397 6B 07                  576 	.dw #0x076b
    00000399 39 07                  577 	.dw #0x0739
    0000039B 00 00                  578 	.dw #0x0000
    0000039D 00 00                  579 	.dw #0x0000
    0000039F 00 00                  580 	.dw #0x0000
    000003A1 6B 07                  581 	.dw #0x076b
    000003A3 00 00                  582 	.dw #0x0000
    000003A5 6B 07                  583 	.dw #0x076b
    000003A7 00 00                  584 	.dw #0x0000
    000003A9 6B 07                  585 	.dw #0x076b
    000003AB 00 00                  586 	.dw #0x0000
    000003AD 6B 07                  587 	.dw #0x076b
    000003AF 00 00                  588 	.dw #0x0000
    000003B1                        589 _trk_mel_3:
    000003B1 6B 07                  590 	.dw #0x076b
    000003B3 00 00                  591 	.dw #0x0000
    000003B5 59 07                  592 	.dw #0x0759
    000003B7 44 07                  593 	.dw #0x0744
    000003B9 00 00                  594 	.dw #0x0000
    000003BB 83 07                  595 	.dw #0x0783
    000003BD 00 00                  596 	.dw #0x0000
    000003BF 00 00                  597 	.dw #0x0000
    000003C1 6B 07                  598 	.dw #0x076b
    000003C3 00 00                  599 	.dw #0x0000
    000003C5 59 07                  600 	.dw #0x0759
    000003C7 44 07                  601 	.dw #0x0744
    000003C9 00 00                  602 	.dw #0x0000
    000003CB 83 07                  603 	.dw #0x0783
    000003CD 00 00                  604 	.dw #0x0000
    000003CF 00 00                  605 	.dw #0x0000
    000003D1 7B 07                  606 	.dw #0x077b
    000003D3 00 00                  607 	.dw #0x0000
    000003D5 6B 07                  608 	.dw #0x076b
    000003D7 59 07                  609 	.dw #0x0759
    000003D9 00 00                  610 	.dw #0x0000
    000003DB 90 07                  611 	.dw #0x0790
    000003DD 00 00                  612 	.dw #0x0000
    000003DF 00 00                  613 	.dw #0x0000
    000003E1 7B 07                  614 	.dw #0x077b
    000003E3 00 00                  615 	.dw #0x0000
    000003E5 6B 07                  616 	.dw #0x076b
    000003E7 59 07                  617 	.dw #0x0759
    000003E9 00 00                  618 	.dw #0x0000
    000003EB 90 07                  619 	.dw #0x0790
    000003ED 00 00                  620 	.dw #0x0000
    000003EF 00 00                  621 	.dw #0x0000
    000003F1 9C 07                  622 	.dw #0x079c
    000003F3 00 00                  623 	.dw #0x0000
    000003F5 90 07                  624 	.dw #0x0790
    000003F7 83 07                  625 	.dw #0x0783
    000003F9 7B 07                  626 	.dw #0x077b
    000003FB 6B 07                  627 	.dw #0x076b
    000003FD 59 07                  628 	.dw #0x0759
    000003FF 44 07                  629 	.dw #0x0744
    00000401 39 07                  630 	.dw #0x0739
    00000403 21 07                  631 	.dw #0x0721
    00000405 06 07                  632 	.dw #0x0706
    00000407 00 00                  633 	.dw #0x0000
    00000409 00 00                  634 	.dw #0x0000
    0000040B 00 00                  635 	.dw #0x0000
    0000040D 00 00                  636 	.dw #0x0000
    0000040F 00 00                  637 	.dw #0x0000
    00000411 06 07                  638 	.dw #0x0706
    00000413 00 00                  639 	.dw #0x0000
    00000415 21 07                  640 	.dw #0x0721
    00000417 00 00                  641 	.dw #0x0000
    00000419 39 07                  642 	.dw #0x0739
    0000041B 00 00                  643 	.dw #0x0000
    0000041D 59 07                  644 	.dw #0x0759
    0000041F 00 00                  645 	.dw #0x0000
    00000421 83 07                  646 	.dw #0x0783
    00000423 00 00                  647 	.dw #0x0000
    00000425 00 00                  648 	.dw #0x0000
    00000427 00 00                  649 	.dw #0x0000
    00000429 00 00                  650 	.dw #0x0000
    0000042B 00 00                  651 	.dw #0x0000
    0000042D 00 00                  652 	.dw #0x0000
    0000042F 00 00                  653 	.dw #0x0000
    00000431                        654 _mel_parts:
    00000431r31r02                  655 	.dw _trk_mel_0
    00000433rB1r02                  656 	.dw _trk_mel_1
    00000435r31r03                  657 	.dw _trk_mel_2
    00000437rB1r03                  658 	.dw _trk_mel_3
    00000439                        659 _trk_bass_0:
    00000439 0B 06                  660 	.dw #0x060b
    0000043B 00 00                  661 	.dw #0x0000
    0000043D 0B 06                  662 	.dw #0x060b
    0000043F 00 00                  663 	.dw #0x0000
    00000441 72 06                  664 	.dw #0x0672
    00000443 00 00                  665 	.dw #0x0000
    00000445 B2 06                  666 	.dw #0x06b2
    00000447 00 00                  667 	.dw #0x0000
    00000449 0B 06                  668 	.dw #0x060b
    0000044B 00 00                  669 	.dw #0x0000
    0000044D 0B 06                  670 	.dw #0x060b
    0000044F 00 00                  671 	.dw #0x0000
    00000451 B2 06                  672 	.dw #0x06b2
    00000453 00 00                  673 	.dw #0x0000
    00000455 72 06                  674 	.dw #0x0672
    00000457 00 00                  675 	.dw #0x0000
    00000459 89 06                  676 	.dw #0x0689
    0000045B 00 00                  677 	.dw #0x0000
    0000045D 89 06                  678 	.dw #0x0689
    0000045F 00 00                  679 	.dw #0x0000
    00000461 D6 06                  680 	.dw #0x06d6
    00000463 00 00                  681 	.dw #0x0000
    00000465 06 07                  682 	.dw #0x0706
    00000467 00 00                  683 	.dw #0x0000
    00000469 89 06                  684 	.dw #0x0689
    0000046B 00 00                  685 	.dw #0x0000
    0000046D 89 06                  686 	.dw #0x0689
    0000046F 00 00                  687 	.dw #0x0000
    00000471 06 07                  688 	.dw #0x0706
    00000473 00 00                  689 	.dw #0x0000
    00000475 D6 06                  690 	.dw #0x06d6
    00000477 00 00                  691 	.dw #0x0000
    00000479 B2 06                  692 	.dw #0x06b2
    0000047B 00 00                  693 	.dw #0x0000
    0000047D B2 06                  694 	.dw #0x06b2
    0000047F 00 00                  695 	.dw #0x0000
    00000481 F7 06                  696 	.dw #0x06f7
    00000483 00 00                  697 	.dw #0x0000
    00000485 41 06                  698 	.dw #0x0641
    00000487 00 00                  699 	.dw #0x0000
    00000489 B2 06                  700 	.dw #0x06b2
    0000048B 00 00                  701 	.dw #0x0000
    0000048D B2 06                  702 	.dw #0x06b2
    0000048F 00 00                  703 	.dw #0x0000
    00000491 41 06                  704 	.dw #0x0641
    00000493 00 00                  705 	.dw #0x0000
    00000495 F7 06                  706 	.dw #0x06f7
    00000497 00 00                  707 	.dw #0x0000
    00000499 0B 06                  708 	.dw #0x060b
    0000049B 00 00                  709 	.dw #0x0000
    0000049D 0B 06                  710 	.dw #0x060b
    0000049F 00 00                  711 	.dw #0x0000
    000004A1 72 06                  712 	.dw #0x0672
    000004A3 00 00                  713 	.dw #0x0000
    000004A5 B2 06                  714 	.dw #0x06b2
    000004A7 00 00                  715 	.dw #0x0000
    000004A9 0B 06                  716 	.dw #0x060b
    000004AB 00 00                  717 	.dw #0x0000
    000004AD 72 06                  718 	.dw #0x0672
    000004AF 00 00                  719 	.dw #0x0000
    000004B1 B2 06                  720 	.dw #0x06b2
    000004B3 00 00                  721 	.dw #0x0000
    000004B5 06 07                  722 	.dw #0x0706
    000004B7 00 00                  723 	.dw #0x0000
    000004B9                        724 _trk_bass_1:
    000004B9 0B 06                  725 	.dw #0x060b
    000004BB 00 00                  726 	.dw #0x0000
    000004BD 0B 06                  727 	.dw #0x060b
    000004BF 00 00                  728 	.dw #0x0000
    000004C1 72 06                  729 	.dw #0x0672
    000004C3 00 00                  730 	.dw #0x0000
    000004C5 B2 06                  731 	.dw #0x06b2
    000004C7 00 00                  732 	.dw #0x0000
    000004C9 0B 06                  733 	.dw #0x060b
    000004CB 00 00                  734 	.dw #0x0000
    000004CD 0B 06                  735 	.dw #0x060b
    000004CF 00 00                  736 	.dw #0x0000
    000004D1 B2 06                  737 	.dw #0x06b2
    000004D3 00 00                  738 	.dw #0x0000
    000004D5 72 06                  739 	.dw #0x0672
    000004D7 00 00                  740 	.dw #0x0000
    000004D9 89 06                  741 	.dw #0x0689
    000004DB 00 00                  742 	.dw #0x0000
    000004DD 89 06                  743 	.dw #0x0689
    000004DF 00 00                  744 	.dw #0x0000
    000004E1 D6 06                  745 	.dw #0x06d6
    000004E3 00 00                  746 	.dw #0x0000
    000004E5 06 07                  747 	.dw #0x0706
    000004E7 00 00                  748 	.dw #0x0000
    000004E9 89 06                  749 	.dw #0x0689
    000004EB 00 00                  750 	.dw #0x0000
    000004ED 89 06                  751 	.dw #0x0689
    000004EF 00 00                  752 	.dw #0x0000
    000004F1 06 07                  753 	.dw #0x0706
    000004F3 00 00                  754 	.dw #0x0000
    000004F5 D6 06                  755 	.dw #0x06d6
    000004F7 00 00                  756 	.dw #0x0000
    000004F9 B2 06                  757 	.dw #0x06b2
    000004FB 00 00                  758 	.dw #0x0000
    000004FD B2 06                  759 	.dw #0x06b2
    000004FF 00 00                  760 	.dw #0x0000
    00000501 F7 06                  761 	.dw #0x06f7
    00000503 00 00                  762 	.dw #0x0000
    00000505 41 06                  763 	.dw #0x0641
    00000507 00 00                  764 	.dw #0x0000
    00000509 B2 06                  765 	.dw #0x06b2
    0000050B 00 00                  766 	.dw #0x0000
    0000050D B2 06                  767 	.dw #0x06b2
    0000050F 00 00                  768 	.dw #0x0000
    00000511 41 06                  769 	.dw #0x0641
    00000513 00 00                  770 	.dw #0x0000
    00000515 F7 06                  771 	.dw #0x06f7
    00000517 00 00                  772 	.dw #0x0000
    00000519 0B 06                  773 	.dw #0x060b
    0000051B 00 00                  774 	.dw #0x0000
    0000051D 0B 06                  775 	.dw #0x060b
    0000051F 00 00                  776 	.dw #0x0000
    00000521 72 06                  777 	.dw #0x0672
    00000523 00 00                  778 	.dw #0x0000
    00000525 B2 06                  779 	.dw #0x06b2
    00000527 00 00                  780 	.dw #0x0000
    00000529 0B 06                  781 	.dw #0x060b
    0000052B 00 00                  782 	.dw #0x0000
    0000052D 00 00                  783 	.dw #0x0000
    0000052F 00 00                  784 	.dw #0x0000
    00000531 00 00                  785 	.dw #0x0000
    00000533 00 00                  786 	.dw #0x0000
    00000535 00 00                  787 	.dw #0x0000
    00000537 00 00                  788 	.dw #0x0000
    00000539                        789 _trk_bass_2:
    00000539 89 06                  790 	.dw #0x0689
    0000053B 00 00                  791 	.dw #0x0000
    0000053D D6 06                  792 	.dw #0x06d6
    0000053F 00 00                  793 	.dw #0x0000
    00000541 06 07                  794 	.dw #0x0706
    00000543 00 00                  795 	.dw #0x0000
    00000545 D6 06                  796 	.dw #0x06d6
    00000547 00 00                  797 	.dw #0x0000
    00000549 89 06                  798 	.dw #0x0689
    0000054B 00 00                  799 	.dw #0x0000
    0000054D D6 06                  800 	.dw #0x06d6
    0000054F 00 00                  801 	.dw #0x0000
    00000551 06 07                  802 	.dw #0x0706
    00000553 00 00                  803 	.dw #0x0000
    00000555 D6 06                  804 	.dw #0x06d6
    00000557 00 00                  805 	.dw #0x0000
    00000559 B2 06                  806 	.dw #0x06b2
    0000055B 00 00                  807 	.dw #0x0000
    0000055D F7 06                  808 	.dw #0x06f7
    0000055F 00 00                  809 	.dw #0x0000
    00000561 41 06                  810 	.dw #0x0641
    00000563 00 00                  811 	.dw #0x0000
    00000565 F7 06                  812 	.dw #0x06f7
    00000567 00 00                  813 	.dw #0x0000
    00000569 B2 06                  814 	.dw #0x06b2
    0000056B 00 00                  815 	.dw #0x0000
    0000056D F7 06                  816 	.dw #0x06f7
    0000056F 00 00                  817 	.dw #0x0000
    00000571 41 06                  818 	.dw #0x0641
    00000573 00 00                  819 	.dw #0x0000
    00000575 F7 06                  820 	.dw #0x06f7
    00000577 00 00                  821 	.dw #0x0000
    00000579 72 06                  822 	.dw #0x0672
    0000057B 00 00                  823 	.dw #0x0000
    0000057D C6 06                  824 	.dw #0x06c6
    0000057F 00 00                  825 	.dw #0x0000
    00000581 F7 06                  826 	.dw #0x06f7
    00000583 00 00                  827 	.dw #0x0000
    00000585 C6 06                  828 	.dw #0x06c6
    00000587 00 00                  829 	.dw #0x0000
    00000589 72 06                  830 	.dw #0x0672
    0000058B 00 00                  831 	.dw #0x0000
    0000058D C6 06                  832 	.dw #0x06c6
    0000058F 00 00                  833 	.dw #0x0000
    00000591 F7 06                  834 	.dw #0x06f7
    00000593 00 00                  835 	.dw #0x0000
    00000595 C6 06                  836 	.dw #0x06c6
    00000597 00 00                  837 	.dw #0x0000
    00000599 D6 06                  838 	.dw #0x06d6
    0000059B 00 00                  839 	.dw #0x0000
    0000059D 06 07                  840 	.dw #0x0706
    0000059F 00 00                  841 	.dw #0x0000
    000005A1 39 07                  842 	.dw #0x0739
    000005A3 00 00                  843 	.dw #0x0000
    000005A5 06 07                  844 	.dw #0x0706
    000005A7 00 00                  845 	.dw #0x0000
    000005A9 D6 06                  846 	.dw #0x06d6
    000005AB 00 00                  847 	.dw #0x0000
    000005AD 00 00                  848 	.dw #0x0000
    000005AF 00 00                  849 	.dw #0x0000
    000005B1 B2 06                  850 	.dw #0x06b2
    000005B3 00 00                  851 	.dw #0x0000
    000005B5 00 00                  852 	.dw #0x0000
    000005B7 00 00                  853 	.dw #0x0000
    000005B9                        854 _trk_bass_3:
    000005B9 89 06                  855 	.dw #0x0689
    000005BB 00 00                  856 	.dw #0x0000
    000005BD D6 06                  857 	.dw #0x06d6
    000005BF 00 00                  858 	.dw #0x0000
    000005C1 06 07                  859 	.dw #0x0706
    000005C3 00 00                  860 	.dw #0x0000
    000005C5 D6 06                  861 	.dw #0x06d6
    000005C7 00 00                  862 	.dw #0x0000
    000005C9 89 06                  863 	.dw #0x0689
    000005CB 00 00                  864 	.dw #0x0000
    000005CD D6 06                  865 	.dw #0x06d6
    000005CF 00 00                  866 	.dw #0x0000
    000005D1 06 07                  867 	.dw #0x0706
    000005D3 00 00                  868 	.dw #0x0000
    000005D5 D6 06                  869 	.dw #0x06d6
    000005D7 00 00                  870 	.dw #0x0000
    000005D9 B2 06                  871 	.dw #0x06b2
    000005DB 00 00                  872 	.dw #0x0000
    000005DD F7 06                  873 	.dw #0x06f7
    000005DF 00 00                  874 	.dw #0x0000
    000005E1 41 06                  875 	.dw #0x0641
    000005E3 00 00                  876 	.dw #0x0000
    000005E5 F7 06                  877 	.dw #0x06f7
    000005E7 00 00                  878 	.dw #0x0000
    000005E9 B2 06                  879 	.dw #0x06b2
    000005EB 00 00                  880 	.dw #0x0000
    000005ED F7 06                  881 	.dw #0x06f7
    000005EF 00 00                  882 	.dw #0x0000
    000005F1 41 06                  883 	.dw #0x0641
    000005F3 00 00                  884 	.dw #0x0000
    000005F5 F7 06                  885 	.dw #0x06f7
    000005F7 00 00                  886 	.dw #0x0000
    000005F9 0B 06                  887 	.dw #0x060b
    000005FB 00 00                  888 	.dw #0x0000
    000005FD 72 06                  889 	.dw #0x0672
    000005FF 00 00                  890 	.dw #0x0000
    00000601 B2 06                  891 	.dw #0x06b2
    00000603 00 00                  892 	.dw #0x0000
    00000605 72 06                  893 	.dw #0x0672
    00000607 00 00                  894 	.dw #0x0000
    00000609 0B 06                  895 	.dw #0x060b
    0000060B 00 00                  896 	.dw #0x0000
    0000060D 72 06                  897 	.dw #0x0672
    0000060F 00 00                  898 	.dw #0x0000
    00000611 B2 06                  899 	.dw #0x06b2
    00000613 00 00                  900 	.dw #0x0000
    00000615 72 06                  901 	.dw #0x0672
    00000617 00 00                  902 	.dw #0x0000
    00000619 0B 06                  903 	.dw #0x060b
    0000061B 00 00                  904 	.dw #0x0000
    0000061D B2 06                  905 	.dw #0x06b2
    0000061F 00 00                  906 	.dw #0x0000
    00000621 06 07                  907 	.dw #0x0706
    00000623 00 00                  908 	.dw #0x0000
    00000625 B2 06                  909 	.dw #0x06b2
    00000627 00 00                  910 	.dw #0x0000
    00000629 0B 06                  911 	.dw #0x060b
    0000062B 00 00                  912 	.dw #0x0000
    0000062D 00 00                  913 	.dw #0x0000
    0000062F 00 00                  914 	.dw #0x0000
    00000631 00 00                  915 	.dw #0x0000
    00000633 00 00                  916 	.dw #0x0000
    00000635 00 00                  917 	.dw #0x0000
    00000637 00 00                  918 	.dw #0x0000
    00000639                        919 _bass_parts:
    00000639r39r04                  920 	.dw _trk_bass_0
    0000063BrB9r04                  921 	.dw _trk_bass_1
    0000063Dr39r05                  922 	.dw _trk_bass_2
    0000063FrB9r05                  923 	.dw _trk_bass_3
    00000641                        924 _wave_ram:
    00000641 02                     925 	.db #0x02	; 2
    00000642 46                     926 	.db #0x46	; 70	'F'
    00000643 8A                     927 	.db #0x8a	; 138
    00000644 CE                     928 	.db #0xce	; 206
    00000645 FF                     929 	.db #0xff	; 255
    00000646 FE                     930 	.db #0xfe	; 254
    00000647 EC                     931 	.db #0xec	; 236
    00000648 A8                     932 	.db #0xa8	; 168
    00000649 64                     933 	.db #0x64	; 100	'd'
    0000064A 20                     934 	.db #0x20	; 32
    0000064B 00                     935 	.db #0x00	; 0
    0000064C 00                     936 	.db #0x00	; 0
    0000064D 00                     937 	.db #0x00	; 0
    0000064E 00                     938 	.db #0x00	; 0
    0000064F 00                     939 	.db #0x00	; 0
    00000650 00                     940 	.db #0x00	; 0
    00000651                        941 _trk_drum_0:
    00000651 01                     942 	.db #0x01	; 1
    00000652 03                     943 	.db #0x03	; 3
    00000653 03                     944 	.db #0x03	; 3
    00000654 03                     945 	.db #0x03	; 3
    00000655 02                     946 	.db #0x02	; 2
    00000656 03                     947 	.db #0x03	; 3
    00000657 03                     948 	.db #0x03	; 3
    00000658 03                     949 	.db #0x03	; 3
    00000659 01                     950 	.db #0x01	; 1
    0000065A 03                     951 	.db #0x03	; 3
    0000065B 03                     952 	.db #0x03	; 3
    0000065C 03                     953 	.db #0x03	; 3
    0000065D 02                     954 	.db #0x02	; 2
    0000065E 03                     955 	.db #0x03	; 3
    0000065F 03                     956 	.db #0x03	; 3
    00000660 03                     957 	.db #0x03	; 3
    00000661 01                     958 	.db #0x01	; 1
    00000662 03                     959 	.db #0x03	; 3
    00000663 03                     960 	.db #0x03	; 3
    00000664 03                     961 	.db #0x03	; 3
    00000665 02                     962 	.db #0x02	; 2
    00000666 03                     963 	.db #0x03	; 3
    00000667 03                     964 	.db #0x03	; 3
    00000668 03                     965 	.db #0x03	; 3
    00000669 01                     966 	.db #0x01	; 1
    0000066A 03                     967 	.db #0x03	; 3
    0000066B 01                     968 	.db #0x01	; 1
    0000066C 03                     969 	.db #0x03	; 3
    0000066D 02                     970 	.db #0x02	; 2
    0000066E 03                     971 	.db #0x03	; 3
    0000066F 03                     972 	.db #0x03	; 3
    00000670 03                     973 	.db #0x03	; 3
    00000671 01                     974 	.db #0x01	; 1
    00000672 03                     975 	.db #0x03	; 3
    00000673 03                     976 	.db #0x03	; 3
    00000674 03                     977 	.db #0x03	; 3
    00000675 02                     978 	.db #0x02	; 2
    00000676 03                     979 	.db #0x03	; 3
    00000677 03                     980 	.db #0x03	; 3
    00000678 03                     981 	.db #0x03	; 3
    00000679 01                     982 	.db #0x01	; 1
    0000067A 03                     983 	.db #0x03	; 3
    0000067B 03                     984 	.db #0x03	; 3
    0000067C 03                     985 	.db #0x03	; 3
    0000067D 02                     986 	.db #0x02	; 2
    0000067E 03                     987 	.db #0x03	; 3
    0000067F 03                     988 	.db #0x03	; 3
    00000680 03                     989 	.db #0x03	; 3
    00000681 01                     990 	.db #0x01	; 1
    00000682 03                     991 	.db #0x03	; 3
    00000683 03                     992 	.db #0x03	; 3
    00000684 03                     993 	.db #0x03	; 3
    00000685 02                     994 	.db #0x02	; 2
    00000686 03                     995 	.db #0x03	; 3
    00000687 03                     996 	.db #0x03	; 3
    00000688 03                     997 	.db #0x03	; 3
    00000689 01                     998 	.db #0x01	; 1
    0000068A 01                     999 	.db #0x01	; 1
    0000068B 03                    1000 	.db #0x03	; 3
    0000068C 03                    1001 	.db #0x03	; 3
    0000068D 02                    1002 	.db #0x02	; 2
    0000068E 02                    1003 	.db #0x02	; 2
    0000068F 01                    1004 	.db #0x01	; 1
    00000690 01                    1005 	.db #0x01	; 1
    00000691                       1006 _trk_drum_1:
    00000691 01                    1007 	.db #0x01	; 1
    00000692 03                    1008 	.db #0x03	; 3
    00000693 03                    1009 	.db #0x03	; 3
    00000694 03                    1010 	.db #0x03	; 3
    00000695 02                    1011 	.db #0x02	; 2
    00000696 03                    1012 	.db #0x03	; 3
    00000697 03                    1013 	.db #0x03	; 3
    00000698 03                    1014 	.db #0x03	; 3
    00000699 01                    1015 	.db #0x01	; 1
    0000069A 03                    1016 	.db #0x03	; 3
    0000069B 03                    1017 	.db #0x03	; 3
    0000069C 03                    1018 	.db #0x03	; 3
    0000069D 02                    1019 	.db #0x02	; 2
    0000069E 03                    1020 	.db #0x03	; 3
    0000069F 03                    1021 	.db #0x03	; 3
    000006A0 03                    1022 	.db #0x03	; 3
    000006A1 01                    1023 	.db #0x01	; 1
    000006A2 03                    1024 	.db #0x03	; 3
    000006A3 03                    1025 	.db #0x03	; 3
    000006A4 03                    1026 	.db #0x03	; 3
    000006A5 02                    1027 	.db #0x02	; 2
    000006A6 03                    1028 	.db #0x03	; 3
    000006A7 03                    1029 	.db #0x03	; 3
    000006A8 03                    1030 	.db #0x03	; 3
    000006A9 01                    1031 	.db #0x01	; 1
    000006AA 03                    1032 	.db #0x03	; 3
    000006AB 01                    1033 	.db #0x01	; 1
    000006AC 03                    1034 	.db #0x03	; 3
    000006AD 02                    1035 	.db #0x02	; 2
    000006AE 03                    1036 	.db #0x03	; 3
    000006AF 03                    1037 	.db #0x03	; 3
    000006B0 03                    1038 	.db #0x03	; 3
    000006B1 01                    1039 	.db #0x01	; 1
    000006B2 03                    1040 	.db #0x03	; 3
    000006B3 03                    1041 	.db #0x03	; 3
    000006B4 03                    1042 	.db #0x03	; 3
    000006B5 02                    1043 	.db #0x02	; 2
    000006B6 03                    1044 	.db #0x03	; 3
    000006B7 03                    1045 	.db #0x03	; 3
    000006B8 03                    1046 	.db #0x03	; 3
    000006B9 01                    1047 	.db #0x01	; 1
    000006BA 03                    1048 	.db #0x03	; 3
    000006BB 03                    1049 	.db #0x03	; 3
    000006BC 03                    1050 	.db #0x03	; 3
    000006BD 02                    1051 	.db #0x02	; 2
    000006BE 03                    1052 	.db #0x03	; 3
    000006BF 03                    1053 	.db #0x03	; 3
    000006C0 03                    1054 	.db #0x03	; 3
    000006C1 01                    1055 	.db #0x01	; 1
    000006C2 03                    1056 	.db #0x03	; 3
    000006C3 03                    1057 	.db #0x03	; 3
    000006C4 03                    1058 	.db #0x03	; 3
    000006C5 02                    1059 	.db #0x02	; 2
    000006C6 03                    1060 	.db #0x03	; 3
    000006C7 03                    1061 	.db #0x03	; 3
    000006C8 03                    1062 	.db #0x03	; 3
    000006C9 01                    1063 	.db #0x01	; 1
    000006CA 02                    1064 	.db #0x02	; 2
    000006CB 01                    1065 	.db #0x01	; 1
    000006CC 02                    1066 	.db #0x02	; 2
    000006CD 01                    1067 	.db #0x01	; 1
    000006CE 02                    1068 	.db #0x02	; 2
    000006CF 01                    1069 	.db #0x01	; 1
    000006D0 02                    1070 	.db #0x02	; 2
    000006D1                       1071 _trk_drum_2:
    000006D1 01                    1072 	.db #0x01	; 1
    000006D2 03                    1073 	.db #0x03	; 3
    000006D3 03                    1074 	.db #0x03	; 3
    000006D4 03                    1075 	.db #0x03	; 3
    000006D5 02                    1076 	.db #0x02	; 2
    000006D6 03                    1077 	.db #0x03	; 3
    000006D7 03                    1078 	.db #0x03	; 3
    000006D8 03                    1079 	.db #0x03	; 3
    000006D9 01                    1080 	.db #0x01	; 1
    000006DA 03                    1081 	.db #0x03	; 3
    000006DB 03                    1082 	.db #0x03	; 3
    000006DC 03                    1083 	.db #0x03	; 3
    000006DD 02                    1084 	.db #0x02	; 2
    000006DE 03                    1085 	.db #0x03	; 3
    000006DF 03                    1086 	.db #0x03	; 3
    000006E0 03                    1087 	.db #0x03	; 3
    000006E1 01                    1088 	.db #0x01	; 1
    000006E2 03                    1089 	.db #0x03	; 3
    000006E3 03                    1090 	.db #0x03	; 3
    000006E4 03                    1091 	.db #0x03	; 3
    000006E5 02                    1092 	.db #0x02	; 2
    000006E6 03                    1093 	.db #0x03	; 3
    000006E7 03                    1094 	.db #0x03	; 3
    000006E8 03                    1095 	.db #0x03	; 3
    000006E9 01                    1096 	.db #0x01	; 1
    000006EA 03                    1097 	.db #0x03	; 3
    000006EB 01                    1098 	.db #0x01	; 1
    000006EC 03                    1099 	.db #0x03	; 3
    000006ED 02                    1100 	.db #0x02	; 2
    000006EE 03                    1101 	.db #0x03	; 3
    000006EF 03                    1102 	.db #0x03	; 3
    000006F0 03                    1103 	.db #0x03	; 3
    000006F1 01                    1104 	.db #0x01	; 1
    000006F2 03                    1105 	.db #0x03	; 3
    000006F3 03                    1106 	.db #0x03	; 3
    000006F4 03                    1107 	.db #0x03	; 3
    000006F5 02                    1108 	.db #0x02	; 2
    000006F6 03                    1109 	.db #0x03	; 3
    000006F7 03                    1110 	.db #0x03	; 3
    000006F8 03                    1111 	.db #0x03	; 3
    000006F9 01                    1112 	.db #0x01	; 1
    000006FA 03                    1113 	.db #0x03	; 3
    000006FB 03                    1114 	.db #0x03	; 3
    000006FC 03                    1115 	.db #0x03	; 3
    000006FD 02                    1116 	.db #0x02	; 2
    000006FE 03                    1117 	.db #0x03	; 3
    000006FF 03                    1118 	.db #0x03	; 3
    00000700 03                    1119 	.db #0x03	; 3
    00000701 01                    1120 	.db #0x01	; 1
    00000702 03                    1121 	.db #0x03	; 3
    00000703 03                    1122 	.db #0x03	; 3
    00000704 03                    1123 	.db #0x03	; 3
    00000705 02                    1124 	.db #0x02	; 2
    00000706 03                    1125 	.db #0x03	; 3
    00000707 03                    1126 	.db #0x03	; 3
    00000708 03                    1127 	.db #0x03	; 3
    00000709 02                    1128 	.db #0x02	; 2
    0000070A 02                    1129 	.db #0x02	; 2
    0000070B 02                    1130 	.db #0x02	; 2
    0000070C 02                    1131 	.db #0x02	; 2
    0000070D 02                    1132 	.db #0x02	; 2
    0000070E 02                    1133 	.db #0x02	; 2
    0000070F 02                    1134 	.db #0x02	; 2
    00000710 02                    1135 	.db #0x02	; 2
    00000711                       1136 _trk_drum_3:
    00000711 01                    1137 	.db #0x01	; 1
    00000712 03                    1138 	.db #0x03	; 3
    00000713 01                    1139 	.db #0x01	; 1
    00000714 03                    1140 	.db #0x03	; 3
    00000715 02                    1141 	.db #0x02	; 2
    00000716 03                    1142 	.db #0x03	; 3
    00000717 01                    1143 	.db #0x01	; 1
    00000718 03                    1144 	.db #0x03	; 3
    00000719 01                    1145 	.db #0x01	; 1
    0000071A 03                    1146 	.db #0x03	; 3
    0000071B 01                    1147 	.db #0x01	; 1
    0000071C 03                    1148 	.db #0x03	; 3
    0000071D 02                    1149 	.db #0x02	; 2
    0000071E 03                    1150 	.db #0x03	; 3
    0000071F 01                    1151 	.db #0x01	; 1
    00000720 03                    1152 	.db #0x03	; 3
    00000721 01                    1153 	.db #0x01	; 1
    00000722 03                    1154 	.db #0x03	; 3
    00000723 01                    1155 	.db #0x01	; 1
    00000724 03                    1156 	.db #0x03	; 3
    00000725 02                    1157 	.db #0x02	; 2
    00000726 03                    1158 	.db #0x03	; 3
    00000727 01                    1159 	.db #0x01	; 1
    00000728 03                    1160 	.db #0x03	; 3
    00000729 01                    1161 	.db #0x01	; 1
    0000072A 03                    1162 	.db #0x03	; 3
    0000072B 01                    1163 	.db #0x01	; 1
    0000072C 03                    1164 	.db #0x03	; 3
    0000072D 02                    1165 	.db #0x02	; 2
    0000072E 03                    1166 	.db #0x03	; 3
    0000072F 01                    1167 	.db #0x01	; 1
    00000730 03                    1168 	.db #0x03	; 3
    00000731 01                    1169 	.db #0x01	; 1
    00000732 03                    1170 	.db #0x03	; 3
    00000733 01                    1171 	.db #0x01	; 1
    00000734 03                    1172 	.db #0x03	; 3
    00000735 02                    1173 	.db #0x02	; 2
    00000736 03                    1174 	.db #0x03	; 3
    00000737 01                    1175 	.db #0x01	; 1
    00000738 03                    1176 	.db #0x03	; 3
    00000739 01                    1177 	.db #0x01	; 1
    0000073A 03                    1178 	.db #0x03	; 3
    0000073B 01                    1179 	.db #0x01	; 1
    0000073C 03                    1180 	.db #0x03	; 3
    0000073D 02                    1181 	.db #0x02	; 2
    0000073E 03                    1182 	.db #0x03	; 3
    0000073F 01                    1183 	.db #0x01	; 1
    00000740 03                    1184 	.db #0x03	; 3
    00000741 01                    1185 	.db #0x01	; 1
    00000742 00                    1186 	.db #0x00	; 0
    00000743 00                    1187 	.db #0x00	; 0
    00000744 00                    1188 	.db #0x00	; 0
    00000745 01                    1189 	.db #0x01	; 1
    00000746 00                    1190 	.db #0x00	; 0
    00000747 00                    1191 	.db #0x00	; 0
    00000748 00                    1192 	.db #0x00	; 0
    00000749 01                    1193 	.db #0x01	; 1
    0000074A 00                    1194 	.db #0x00	; 0
    0000074B 00                    1195 	.db #0x00	; 0
    0000074C 00                    1196 	.db #0x00	; 0
    0000074D 00                    1197 	.db #0x00	; 0
    0000074E 00                    1198 	.db #0x00	; 0
    0000074F 00                    1199 	.db #0x00	; 0
    00000750 00                    1200 	.db #0x00	; 0
    00000751                       1201 _drum_parts:
    00000751r51r06                 1202 	.dw _trk_drum_0
    00000753r91r06                 1203 	.dw _trk_drum_1
    00000755rD1r06                 1204 	.dw _trk_drum_2
    00000757r11r07                 1205 	.dw _trk_drum_3
    00000759                       1206 _go_mel:
    00000759 06 07                 1207 	.dw #0x0706
    0000075B FF FF                 1208 	.dw #0xffff
    0000075D FF FF                 1209 	.dw #0xffff
    0000075F FF FF                 1210 	.dw #0xffff
    00000761 06 07                 1211 	.dw #0x0706
    00000763 FF FF                 1212 	.dw #0xffff
    00000765 FF FF                 1213 	.dw #0xffff
    00000767 FF FF                 1214 	.dw #0xffff
    00000769 06 07                 1215 	.dw #0x0706
    0000076B FF FF                 1216 	.dw #0xffff
    0000076D FF FF                 1217 	.dw #0xffff
    0000076F FF FF                 1218 	.dw #0xffff
    00000771 FF FF                 1219 	.dw #0xffff
    00000773 FF FF                 1220 	.dw #0xffff
    00000775 21 07                 1221 	.dw #0x0721
    00000777 FF FF                 1222 	.dw #0xffff
    00000779 2D 07                 1223 	.dw #0x072d
    0000077B FF FF                 1224 	.dw #0xffff
    0000077D FF FF                 1225 	.dw #0xffff
    0000077F FF FF                 1226 	.dw #0xffff
    00000781 21 07                 1227 	.dw #0x0721
    00000783 FF FF                 1228 	.dw #0xffff
    00000785 FF FF                 1229 	.dw #0xffff
    00000787 FF FF                 1230 	.dw #0xffff
    00000789 06 07                 1231 	.dw #0x0706
    0000078B FF FF                 1232 	.dw #0xffff
    0000078D FF FF                 1233 	.dw #0xffff
    0000078F FF FF                 1234 	.dw #0xffff
    00000791 FF FF                 1235 	.dw #0xffff
    00000793 FF FF                 1236 	.dw #0xffff
    00000795 FF FF                 1237 	.dw #0xffff
    00000797 FF FF                 1238 	.dw #0xffff
    00000799 06 07                 1239 	.dw #0x0706
    0000079B FF FF                 1240 	.dw #0xffff
    0000079D FF FF                 1241 	.dw #0xffff
    0000079F FF FF                 1242 	.dw #0xffff
    000007A1 06 07                 1243 	.dw #0x0706
    000007A3 FF FF                 1244 	.dw #0xffff
    000007A5 FF FF                 1245 	.dw #0xffff
    000007A7 FF FF                 1246 	.dw #0xffff
    000007A9 06 07                 1247 	.dw #0x0706
    000007AB FF FF                 1248 	.dw #0xffff
    000007AD FF FF                 1249 	.dw #0xffff
    000007AF FF FF                 1250 	.dw #0xffff
    000007B1 FF FF                 1251 	.dw #0xffff
    000007B3 FF FF                 1252 	.dw #0xffff
    000007B5 F7 06                 1253 	.dw #0x06f7
    000007B7 FF FF                 1254 	.dw #0xffff
    000007B9 06 07                 1255 	.dw #0x0706
    000007BB FF FF                 1256 	.dw #0xffff
    000007BD FF FF                 1257 	.dw #0xffff
    000007BF FF FF                 1258 	.dw #0xffff
    000007C1 B2 06                 1259 	.dw #0x06b2
    000007C3 FF FF                 1260 	.dw #0xffff
    000007C5 FF FF                 1261 	.dw #0xffff
    000007C7 FF FF                 1262 	.dw #0xffff
    000007C9 0B 06                 1263 	.dw #0x060b
    000007CB FF FF                 1264 	.dw #0xffff
    000007CD FF FF                 1265 	.dw #0xffff
    000007CF FF FF                 1266 	.dw #0xffff
    000007D1 FF FF                 1267 	.dw #0xffff
    000007D3 FF FF                 1268 	.dw #0xffff
    000007D5 FF FF                 1269 	.dw #0xffff
    000007D7 FF FF                 1270 	.dw #0xffff
    000007D9                       1271 _go_bass:
    000007D9 0B 06                 1272 	.dw #0x060b
    000007DB FF FF                 1273 	.dw #0xffff
    000007DD FF FF                 1274 	.dw #0xffff
    000007DF FF FF                 1275 	.dw #0xffff
    000007E1 FF FF                 1276 	.dw #0xffff
    000007E3 FF FF                 1277 	.dw #0xffff
    000007E5 FF FF                 1278 	.dw #0xffff
    000007E7 FF FF                 1279 	.dw #0xffff
    000007E9 0B 06                 1280 	.dw #0x060b
    000007EB FF FF                 1281 	.dw #0xffff
    000007ED FF FF                 1282 	.dw #0xffff
    000007EF FF FF                 1283 	.dw #0xffff
    000007F1 FF FF                 1284 	.dw #0xffff
    000007F3 FF FF                 1285 	.dw #0xffff
    000007F5 FF FF                 1286 	.dw #0xffff
    000007F7 FF FF                 1287 	.dw #0xffff
    000007F9 0B 06                 1288 	.dw #0x060b
    000007FB FF FF                 1289 	.dw #0xffff
    000007FD FF FF                 1290 	.dw #0xffff
    000007FF FF FF                 1291 	.dw #0xffff
    00000801 B2 06                 1292 	.dw #0x06b2
    00000803 FF FF                 1293 	.dw #0xffff
    00000805 FF FF                 1294 	.dw #0xffff
    00000807 FF FF                 1295 	.dw #0xffff
    00000809 0B 06                 1296 	.dw #0x060b
    0000080B FF FF                 1297 	.dw #0xffff
    0000080D FF FF                 1298 	.dw #0xffff
    0000080F FF FF                 1299 	.dw #0xffff
    00000811 FF FF                 1300 	.dw #0xffff
    00000813 FF FF                 1301 	.dw #0xffff
    00000815 FF FF                 1302 	.dw #0xffff
    00000817 FF FF                 1303 	.dw #0xffff
    00000819 0B 06                 1304 	.dw #0x060b
    0000081B FF FF                 1305 	.dw #0xffff
    0000081D FF FF                 1306 	.dw #0xffff
    0000081F FF FF                 1307 	.dw #0xffff
    00000821 FF FF                 1308 	.dw #0xffff
    00000823 FF FF                 1309 	.dw #0xffff
    00000825 FF FF                 1310 	.dw #0xffff
    00000827 FF FF                 1311 	.dw #0xffff
    00000829 0B 06                 1312 	.dw #0x060b
    0000082B FF FF                 1313 	.dw #0xffff
    0000082D FF FF                 1314 	.dw #0xffff
    0000082F FF FF                 1315 	.dw #0xffff
    00000831 FF FF                 1316 	.dw #0xffff
    00000833 FF FF                 1317 	.dw #0xffff
    00000835 FF FF                 1318 	.dw #0xffff
    00000837 FF FF                 1319 	.dw #0xffff
    00000839 89 06                 1320 	.dw #0x0689
    0000083B FF FF                 1321 	.dw #0xffff
    0000083D FF FF                 1322 	.dw #0xffff
    0000083F FF FF                 1323 	.dw #0xffff
    00000841 B2 06                 1324 	.dw #0x06b2
    00000843 FF FF                 1325 	.dw #0xffff
    00000845 FF FF                 1326 	.dw #0xffff
    00000847 FF FF                 1327 	.dw #0xffff
    00000849 0B 06                 1328 	.dw #0x060b
    0000084B FF FF                 1329 	.dw #0xffff
    0000084D FF FF                 1330 	.dw #0xffff
    0000084F FF FF                 1331 	.dw #0xffff
    00000851 FF FF                 1332 	.dw #0xffff
    00000853 FF FF                 1333 	.dw #0xffff
    00000855 FF FF                 1334 	.dw #0xffff
    00000857 FF FF                 1335 	.dw #0xffff
    00000859                       1336 _go_arp:
    00000859 0B 06                 1337 	.dw #0x060b
    0000085B FF FF                 1338 	.dw #0xffff
    0000085D 5A 06                 1339 	.dw #0x065a
    0000085F FF FF                 1340 	.dw #0xffff
    00000861 9E 06                 1341 	.dw #0x069e
    00000863 FF FF                 1342 	.dw #0xffff
    00000865 D6 06                 1343 	.dw #0x06d6
    00000867 FF FF                 1344 	.dw #0xffff
    00000869 0B 06                 1345 	.dw #0x060b
    0000086B FF FF                 1346 	.dw #0xffff
    0000086D 5A 06                 1347 	.dw #0x065a
    0000086F FF FF                 1348 	.dw #0xffff
    00000871 9E 06                 1349 	.dw #0x069e
    00000873 FF FF                 1350 	.dw #0xffff
    00000875 D6 06                 1351 	.dw #0x06d6
    00000877 FF FF                 1352 	.dw #0xffff
    00000879 0B 06                 1353 	.dw #0x060b
    0000087B FF FF                 1354 	.dw #0xffff
    0000087D 5A 06                 1355 	.dw #0x065a
    0000087F FF FF                 1356 	.dw #0xffff
    00000881 89 06                 1357 	.dw #0x0689
    00000883 FF FF                 1358 	.dw #0xffff
    00000885 F7 06                 1359 	.dw #0x06f7
    00000887 FF FF                 1360 	.dw #0xffff
    00000889 0B 06                 1361 	.dw #0x060b
    0000088B FF FF                 1362 	.dw #0xffff
    0000088D 5A 06                 1363 	.dw #0x065a
    0000088F FF FF                 1364 	.dw #0xffff
    00000891 9E 06                 1365 	.dw #0x069e
    00000893 FF FF                 1366 	.dw #0xffff
    00000895 D6 06                 1367 	.dw #0x06d6
    00000897 FF FF                 1368 	.dw #0xffff
    00000899 0B 06                 1369 	.dw #0x060b
    0000089B FF FF                 1370 	.dw #0xffff
    0000089D 5A 06                 1371 	.dw #0x065a
    0000089F FF FF                 1372 	.dw #0xffff
    000008A1 9E 06                 1373 	.dw #0x069e
    000008A3 FF FF                 1374 	.dw #0xffff
    000008A5 D6 06                 1375 	.dw #0x06d6
    000008A7 FF FF                 1376 	.dw #0xffff
    000008A9 0B 06                 1377 	.dw #0x060b
    000008AB FF FF                 1378 	.dw #0xffff
    000008AD 5A 06                 1379 	.dw #0x065a
    000008AF FF FF                 1380 	.dw #0xffff
    000008B1 9E 06                 1381 	.dw #0x069e
    000008B3 FF FF                 1382 	.dw #0xffff
    000008B5 D6 06                 1383 	.dw #0x06d6
    000008B7 FF FF                 1384 	.dw #0xffff
    000008B9 0B 06                 1385 	.dw #0x060b
    000008BB FF FF                 1386 	.dw #0xffff
    000008BD 41 06                 1387 	.dw #0x0641
    000008BF FF FF                 1388 	.dw #0xffff
    000008C1 89 06                 1389 	.dw #0x0689
    000008C3 FF FF                 1390 	.dw #0xffff
    000008C5 B2 06                 1391 	.dw #0x06b2
    000008C7 FF FF                 1392 	.dw #0xffff
    000008C9 0B 06                 1393 	.dw #0x060b
    000008CB FF FF                 1394 	.dw #0xffff
    000008CD 00 00                 1395 	.dw #0x0000
    000008CF 00 00                 1396 	.dw #0x0000
    000008D1 00 00                 1397 	.dw #0x0000
    000008D3 00 00                 1398 	.dw #0x0000
    000008D5 00 00                 1399 	.dw #0x0000
    000008D7 00 00                 1400 	.dw #0x0000
    000008D9                       1401 _go_drum:
    000008D9 01                    1402 	.db #0x01	; 1
    000008DA 00                    1403 	.db #0x00	; 0
    000008DB 00                    1404 	.db #0x00	; 0
    000008DC 00                    1405 	.db #0x00	; 0
    000008DD 01                    1406 	.db #0x01	; 1
    000008DE 00                    1407 	.db #0x00	; 0
    000008DF 00                    1408 	.db #0x00	; 0
    000008E0 00                    1409 	.db #0x00	; 0
    000008E1 01                    1410 	.db #0x01	; 1
    000008E2 00                    1411 	.db #0x00	; 0
    000008E3 00                    1412 	.db #0x00	; 0
    000008E4 00                    1413 	.db #0x00	; 0
    000008E5 01                    1414 	.db #0x01	; 1
    000008E6 00                    1415 	.db #0x00	; 0
    000008E7 00                    1416 	.db #0x00	; 0
    000008E8 00                    1417 	.db #0x00	; 0
    000008E9 01                    1418 	.db #0x01	; 1
    000008EA 00                    1419 	.db #0x00	; 0
    000008EB 00                    1420 	.db #0x00	; 0
    000008EC 00                    1421 	.db #0x00	; 0
    000008ED 01                    1422 	.db #0x01	; 1
    000008EE 00                    1423 	.db #0x00	; 0
    000008EF 00                    1424 	.db #0x00	; 0
    000008F0 00                    1425 	.db #0x00	; 0
    000008F1 01                    1426 	.db #0x01	; 1
    000008F2 00                    1427 	.db #0x00	; 0
    000008F3 00                    1428 	.db #0x00	; 0
    000008F4 00                    1429 	.db #0x00	; 0
    000008F5 01                    1430 	.db #0x01	; 1
    000008F6 00                    1431 	.db #0x00	; 0
    000008F7 00                    1432 	.db #0x00	; 0
    000008F8 00                    1433 	.db #0x00	; 0
    000008F9 01                    1434 	.db #0x01	; 1
    000008FA 00                    1435 	.db #0x00	; 0
    000008FB 00                    1436 	.db #0x00	; 0
    000008FC 00                    1437 	.db #0x00	; 0
    000008FD 01                    1438 	.db #0x01	; 1
    000008FE 00                    1439 	.db #0x00	; 0
    000008FF 00                    1440 	.db #0x00	; 0
    00000900 00                    1441 	.db #0x00	; 0
    00000901 01                    1442 	.db #0x01	; 1
    00000902 00                    1443 	.db #0x00	; 0
    00000903 00                    1444 	.db #0x00	; 0
    00000904 00                    1445 	.db #0x00	; 0
    00000905 01                    1446 	.db #0x01	; 1
    00000906 00                    1447 	.db #0x00	; 0
    00000907 00                    1448 	.db #0x00	; 0
    00000908 00                    1449 	.db #0x00	; 0
    00000909 01                    1450 	.db #0x01	; 1
    0000090A 00                    1451 	.db #0x00	; 0
    0000090B 00                    1452 	.db #0x00	; 0
    0000090C 00                    1453 	.db #0x00	; 0
    0000090D 01                    1454 	.db #0x01	; 1
    0000090E 00                    1455 	.db #0x00	; 0
    0000090F 00                    1456 	.db #0x00	; 0
    00000910 00                    1457 	.db #0x00	; 0
    00000911 01                    1458 	.db #0x01	; 1
    00000912 00                    1459 	.db #0x00	; 0
    00000913 00                    1460 	.db #0x00	; 0
    00000914 00                    1461 	.db #0x00	; 0
    00000915 00                    1462 	.db #0x00	; 0
    00000916 00                    1463 	.db #0x00	; 0
    00000917 00                    1464 	.db #0x00	; 0
    00000918 00                    1465 	.db #0x00	; 0
    00000919                       1466 _title_mel:
    00000919 06 07                 1467 	.dw #0x0706
    0000091B 00 00                 1468 	.dw #0x0000
    0000091D 39 07                 1469 	.dw #0x0739
    0000091F 00 00                 1470 	.dw #0x0000
    00000921 59 07                 1471 	.dw #0x0759
    00000923 00 00                 1472 	.dw #0x0000
    00000925 83 07                 1473 	.dw #0x0783
    00000927 00 00                 1474 	.dw #0x0000
    00000929 6B 07                 1475 	.dw #0x076b
    0000092B 00 00                 1476 	.dw #0x0000
    0000092D 59 07                 1477 	.dw #0x0759
    0000092F 00 00                 1478 	.dw #0x0000
    00000931 39 07                 1479 	.dw #0x0739
    00000933 21 07                 1480 	.dw #0x0721
    00000935 06 07                 1481 	.dw #0x0706
    00000937 00 00                 1482 	.dw #0x0000
    00000939                       1483 _title_bass:
    00000939 0B 06                 1484 	.dw #0x060b
    0000093B 0B 06                 1485 	.dw #0x060b
    0000093D 72 06                 1486 	.dw #0x0672
    0000093F 72 06                 1487 	.dw #0x0672
    00000941 B2 06                 1488 	.dw #0x06b2
    00000943 B2 06                 1489 	.dw #0x06b2
    00000945 06 07                 1490 	.dw #0x0706
    00000947 06 07                 1491 	.dw #0x0706
    00000949 89 06                 1492 	.dw #0x0689
    0000094B 89 06                 1493 	.dw #0x0689
    0000094D 72 06                 1494 	.dw #0x0672
    0000094F 72 06                 1495 	.dw #0x0672
    00000951 0B 06                 1496 	.dw #0x060b
    00000953 B2 06                 1497 	.dw #0x06b2
    00000955 0B 06                 1498 	.dw #0x060b
    00000957 00 00                 1499 	.dw #0x0000
    00000959                       1500 _victory_mel:
    00000959 06 07                 1501 	.dw #0x0706
    0000095B 39 07                 1502 	.dw #0x0739
    0000095D 59 07                 1503 	.dw #0x0759
    0000095F 00 00                 1504 	.dw #0x0000
    00000961 83 07                 1505 	.dw #0x0783
    00000963 59 07                 1506 	.dw #0x0759
    00000965 39 07                 1507 	.dw #0x0739
    00000967 00 00                 1508 	.dw #0x0000
    00000969 44 07                 1509 	.dw #0x0744
    0000096B 6B 07                 1510 	.dw #0x076b
    0000096D 83 07                 1511 	.dw #0x0783
    0000096F 00 00                 1512 	.dw #0x0000
    00000971 9C 07                 1513 	.dw #0x079c
    00000973 83 07                 1514 	.dw #0x0783
    00000975 59 07                 1515 	.dw #0x0759
    00000977 00 00                 1516 	.dw #0x0000
    00000979                       1517 _victory_bass:
    00000979 0B 06                 1518 	.dw #0x060b
    0000097B 72 06                 1519 	.dw #0x0672
    0000097D B2 06                 1520 	.dw #0x06b2
    0000097F 72 06                 1521 	.dw #0x0672
    00000981 0B 06                 1522 	.dw #0x060b
    00000983 72 06                 1523 	.dw #0x0672
    00000985 B2 06                 1524 	.dw #0x06b2
    00000987 72 06                 1525 	.dw #0x0672
    00000989 89 06                 1526 	.dw #0x0689
    0000098B D6 06                 1527 	.dw #0x06d6
    0000098D 06 07                 1528 	.dw #0x0706
    0000098F D6 06                 1529 	.dw #0x06d6
    00000991 0B 06                 1530 	.dw #0x060b
    00000993 B2 06                 1531 	.dw #0x06b2
    00000995 0B 06                 1532 	.dw #0x060b
    00000997 00 00                 1533 	.dw #0x0000
                                   1534 ;src/music.c:292: void play_sfx_moan(void) {
                                   1535 ;	---------------------------------
                                   1536 ; Function play_sfx_moan
                                   1537 ; ---------------------------------
    00000999                       1538 _play_sfx_moan::
                                   1539 ;src/music.c:294: NR10_REG = 0x45; 
    00000999 3E 45            [ 8] 1540 	ld	a, #0x45
    0000099B E0r00            [12] 1541 	ldh	(_NR10_REG + 0), a
                                   1542 ;src/music.c:295: NR11_REG = 0x80;
    0000099D 3E 80            [ 8] 1543 	ld	a, #0x80
    0000099F E0r00            [12] 1544 	ldh	(_NR11_REG + 0), a
                                   1545 ;src/music.c:296: NR12_REG = 0xF3; 
    000009A1 3E F3            [ 8] 1546 	ld	a, #0xf3
    000009A3 E0r00            [12] 1547 	ldh	(_NR12_REG + 0), a
                                   1548 ;src/music.c:297: NR13_REG = 0x40;
    000009A5 3E 40            [ 8] 1549 	ld	a, #0x40
    000009A7 E0r00            [12] 1550 	ldh	(_NR13_REG + 0), a
                                   1551 ;src/music.c:298: NR14_REG = 0x86; 
    000009A9 3E 86            [ 8] 1552 	ld	a, #0x86
    000009AB E0r00            [12] 1553 	ldh	(_NR14_REG + 0), a
                                   1554 ;src/music.c:299: sfx_timer = 40; // Blocca CH1 per 40 frame
    000009AD 21r03r00         [12] 1555 	ld	hl, #_sfx_timer
    000009B0 36 28            [12] 1556 	ld	(hl), #0x28
                                   1557 ;src/music.c:300: }
    000009B2 C9               [16] 1558 	ret
                                   1559 ;src/music.c:302: void play_sfx_plop(void) {
                                   1560 ;	---------------------------------
                                   1561 ; Function play_sfx_plop
                                   1562 ; ---------------------------------
    000009B3                       1563 _play_sfx_plop::
                                   1564 ;src/music.c:304: NR10_REG = 0x00;
    000009B3 AF               [ 4] 1565 	xor	a, a
    000009B4 E0r00            [12] 1566 	ldh	(_NR10_REG + 0), a
                                   1567 ;src/music.c:305: NR11_REG = 0x80;
    000009B6 3E 80            [ 8] 1568 	ld	a, #0x80
    000009B8 E0r00            [12] 1569 	ldh	(_NR11_REG + 0), a
                                   1570 ;src/music.c:306: NR12_REG = 0xF1;
    000009BA 3E F1            [ 8] 1571 	ld	a, #0xf1
    000009BC E0r00            [12] 1572 	ldh	(_NR12_REG + 0), a
                                   1573 ;src/music.c:307: NR13_REG = 0xFF;
    000009BE 3E FF            [ 8] 1574 	ld	a, #0xff
    000009C0 E0r00            [12] 1575 	ldh	(_NR13_REG + 0), a
                                   1576 ;src/music.c:308: NR14_REG = 0x87;
    000009C2 3E 87            [ 8] 1577 	ld	a, #0x87
    000009C4 E0r00            [12] 1578 	ldh	(_NR14_REG + 0), a
                                   1579 ;src/music.c:309: sfx_timer = 15;
    000009C6 21r03r00         [12] 1580 	ld	hl, #_sfx_timer
    000009C9 36 0F            [12] 1581 	ld	(hl), #0x0f
                                   1582 ;src/music.c:310: }
    000009CB C9               [16] 1583 	ret
                                   1584 ;src/music.c:312: void init_music(void) {
                                   1585 ;	---------------------------------
                                   1586 ; Function init_music
                                   1587 ; ---------------------------------
    000009CC                       1588 _init_music::
                                   1589 ;src/music.c:314: NR52_REG = 0x00;
    000009CC AF               [ 4] 1590 	xor	a, a
    000009CD E0r00            [12] 1591 	ldh	(_NR52_REG + 0), a
                                   1592 ;src/music.c:315: NR52_REG = 0x80;
    000009CF 3E 80            [ 8] 1593 	ld	a, #0x80
    000009D1 E0r00            [12] 1594 	ldh	(_NR52_REG + 0), a
                                   1595 ;src/music.c:316: NR50_REG = 0x77;
    000009D3 3E 77            [ 8] 1596 	ld	a, #0x77
    000009D5 E0r00            [12] 1597 	ldh	(_NR50_REG + 0), a
                                   1598 ;src/music.c:317: NR51_REG = 0xFF;
    000009D7 3E FF            [ 8] 1599 	ld	a, #0xff
    000009D9 E0r00            [12] 1600 	ldh	(_NR51_REG + 0), a
                                   1601 ;src/music.c:320: NR30_REG = 0x00; // Disable DAC
    000009DB AF               [ 4] 1602 	xor	a, a
    000009DC E0r00            [12] 1603 	ldh	(_NR30_REG + 0), a
                                   1604 ;src/music.c:322: for (uint8_t i = 0; i < 16; i++) {
    000009DE 0E 00            [ 8] 1605 	ld	c, #0x00
    000009E0                       1606 00103$:
                                   1607 ;src/music.c:323: wave_ptr[i] = wave_ram[i];
    000009E0 79               [ 4] 1608 	ld	a,c
    000009E1 FE 10            [ 8] 1609 	cp	a,#0x10
    000009E3 30 13            [12] 1610 	jr	NC, 00101$
    000009E5 C6 30            [ 8] 1611 	add	a, #0x30
    000009E7 5F               [ 4] 1612 	ld	e, a
    000009E8 3E 00            [ 8] 1613 	ld	a, #0x00
    000009EA CE FF            [ 8] 1614 	adc	a, #0xff
    000009EC 57               [ 4] 1615 	ld	d, a
    000009ED 21r41r06         [12] 1616 	ld	hl, #_wave_ram
    000009F0 06 00            [ 8] 1617 	ld	b, #0x00
    000009F2 09               [ 8] 1618 	add	hl, bc
    000009F3 7E               [ 8] 1619 	ld	a, (hl)
    000009F4 12               [ 8] 1620 	ld	(de), a
                                   1621 ;src/music.c:322: for (uint8_t i = 0; i < 16; i++) {
    000009F5 0C               [ 4] 1622 	inc	c
    000009F6 18 E8            [12] 1623 	jr	00103$
    000009F8                       1624 00101$:
                                   1625 ;src/music.c:325: NR30_REG = 0x80; // Enable DAC
    000009F8 3E 80            [ 8] 1626 	ld	a, #0x80
    000009FA E0r00            [12] 1627 	ldh	(_NR30_REG + 0), a
                                   1628 ;src/music.c:327: tick = 0;
    000009FC AF               [ 4] 1629 	xor	a, a
    000009FD 21r00r00         [12] 1630 	ld	hl, #_tick
    00000A00 22               [ 8] 1631 	ld	(hl+), a
    00000A01 77               [ 8] 1632 	ld	(hl), a
                                   1633 ;src/music.c:328: frame_counter = 0;
                                   1634 ;src/music.c:329: sfx_timer = 0;
    00000A02 AF               [ 4] 1635 	xor	a, a
    00000A03 EAr02r00         [16] 1636 	ld	(#_frame_counter), a
    00000A06 EAr03r00         [16] 1637 	ld	(#_sfx_timer),a
                                   1638 ;src/music.c:330: game_over_mode = 0;
    00000A09 AF               [ 4] 1639 	xor	a, a
    00000A0A EAr04r00         [16] 1640 	ld	(#_game_over_mode),a
                                   1641 ;src/music.c:331: }
    00000A0D C9               [16] 1642 	ret
                                   1643 ;src/music.c:333: void update_music(void) {
                                   1644 ;	---------------------------------
                                   1645 ; Function update_music
                                   1646 ; ---------------------------------
    00000A0E                       1647 _update_music::
    00000A0E E8 F7            [16] 1648 	add	sp, #-9
                                   1649 ;src/music.c:334: if (game_over_mode == 2) return; // Traccia terminata
    00000A10 FAr04r00         [16] 1650 	ld	a, (#_game_over_mode)
    00000A13 D6 02            [ 8] 1651 	sub	a, #0x02
    00000A15 CArE7r0D         [16] 1652 	jp	Z, 00187$
                                   1653 ;src/music.c:336: if (sfx_timer > 0) sfx_timer--;
    00000A18 21r03r00         [12] 1654 	ld	hl, #_sfx_timer
    00000A1B 7E               [ 8] 1655 	ld	a, (hl)
    00000A1C B7               [ 4] 1656 	or	a, a
    00000A1D 28 01            [12] 1657 	jr	Z, 00104$
    00000A1F 35               [12] 1658 	dec	(hl)
    00000A20                       1659 00104$:
                                   1660 ;src/music.c:338: if (frame_counter == 0) {
    00000A20 FAr02r00         [16] 1661 	ld	a, (#_frame_counter)
    00000A23 B7               [ 4] 1662 	or	a, a
    00000A24 C2rE3r0D         [16] 1663 	jp	NZ, 00185$
                                   1664 ;src/music.c:341: if (tick >= 16) {
    00000A27 FAr00r00         [16] 1665 	ld	a, (#_tick)
    00000A2A F8 07            [12] 1666 	ldhl	sp,	#7
    00000A2C 77               [ 8] 1667 	ld	(hl), a
    00000A2D FAr01r00         [16] 1668 	ld	a, (#_tick + 1)
    00000A30 F8 08            [12] 1669 	ldhl	sp,	#8
    00000A32 32               [ 8] 1670 	ld	(hl-), a
    00000A33 2A               [ 8] 1671 	ld	a, (hl+)
    00000A34 D6 10            [ 8] 1672 	sub	a, #0x10
    00000A36 3A               [ 8] 1673 	ld	a, (hl-)
    00000A37 2B               [ 8] 1674 	dec	hl
    00000A38 DE 00            [ 8] 1675 	sbc	a, #0x00
    00000A3A 3E 00            [ 8] 1676 	ld	a, #0x00
    00000A3C 17               [ 4] 1677 	rla
    00000A3D 77               [ 8] 1678 	ld	(hl), a
                                   1679 ;src/music.c:339: if (game_over_mode == 3) {
    00000A3E FAr04r00         [16] 1680 	ld	a, (#_game_over_mode)
    00000A41 D6 03            [ 8] 1681 	sub	a, #0x03
    00000A43 C2rE2r0A         [16] 1682 	jp	NZ, 00182$
                                   1683 ;src/music.c:341: if (tick >= 16) {
    00000A46 F8 06            [12] 1684 	ldhl	sp,	#6
    00000A48 CB 46            [12] 1685 	bit	0, (hl)
    00000A4A 20 06            [12] 1686 	jr	NZ, 00106$
                                   1687 ;src/music.c:342: tick = 0; // LOOP
    00000A4C AF               [ 4] 1688 	xor	a, a
    00000A4D 21r00r00         [12] 1689 	ld	hl, #_tick
    00000A50 22               [ 8] 1690 	ld	(hl+), a
    00000A51 77               [ 8] 1691 	ld	(hl), a
    00000A52                       1692 00106$:
                                   1693 ;src/music.c:345: uint16_t f2 = title_mel[tick];
    00000A52 FAr00r00         [16] 1694 	ld	a, (_tick)
    00000A55 4F               [ 4] 1695 	ld	c, a
    00000A56 21r01r00         [12] 1696 	ld	hl, #_tick + 1
    00000A59 46               [ 8] 1697 	ld	b, (hl)
    00000A5A CB 21            [ 8] 1698 	sla	c
    00000A5C CB 10            [ 8] 1699 	rl	b
    00000A5E 21r19r09         [12] 1700 	ld	hl, #_title_mel
    00000A61 09               [ 8] 1701 	add	hl, bc
    00000A62 2A               [ 8] 1702 	ld	a,	(hl+)
    00000A63 66               [ 8] 1703 	ld	h, (hl)
                                   1704 ;src/music.c:346: if (f2 == N_REST) {
    00000A64 6F               [ 4] 1705 	ld	l, a
                                   1706 ;src/music.c:347: NR22_REG = 0x00;
    00000A65 B4               [ 4] 1707 	or	a, h
    00000A66 20 04            [12] 1708 	jr	NZ, 00108$
    00000A68 E0r00            [12] 1709 	ldh	(_NR22_REG + 0), a
    00000A6A 18 14            [12] 1710 	jr	00109$
    00000A6C                       1711 00108$:
                                   1712 ;src/music.c:349: NR21_REG = 0x80; NR22_REG = 0xF2;
    00000A6C 3E 80            [ 8] 1713 	ld	a, #0x80
    00000A6E E0r00            [12] 1714 	ldh	(_NR21_REG + 0), a
    00000A70 3E F2            [ 8] 1715 	ld	a, #0xf2
    00000A72 E0r00            [12] 1716 	ldh	(_NR22_REG + 0), a
                                   1717 ;src/music.c:350: NR23_REG = (uint8_t)(f2 & 0xFF); NR24_REG = 0x80 | ((f2 >> 8) & 0x07);
    00000A74 E5               [16] 1718 	push	hl
    00000A75 7D               [ 4] 1719 	ld	a, l
    00000A76 E0r00            [12] 1720 	ldh	(_NR23_REG + 0), a
    00000A78 E1               [12] 1721 	pop	hl
    00000A79 7C               [ 4] 1722 	ld	a, h
    00000A7A E6 07            [ 8] 1723 	and	a, #0x07
    00000A7C F6 80            [ 8] 1724 	or	a, #0x80
    00000A7E E0r00            [12] 1725 	ldh	(_NR24_REG + 0), a
    00000A80                       1726 00109$:
                                   1727 ;src/music.c:353: uint16_t f3 = title_bass[tick];
    00000A80 21r39r09         [12] 1728 	ld	hl, #_title_bass
    00000A83 09               [ 8] 1729 	add	hl, bc
    00000A84 2A               [ 8] 1730 	ld	a, (hl+)
    00000A85 4F               [ 4] 1731 	ld	c, a
    00000A86 46               [ 8] 1732 	ld	b, (hl)
                                   1733 ;src/music.c:354: if (f3 == N_REST) {
    00000A87 78               [ 4] 1734 	ld	a, b
                                   1735 ;src/music.c:355: NR32_REG = 0x00;
    00000A88 B1               [ 4] 1736 	or	a, c
    00000A89 20 04            [12] 1737 	jr	NZ, 00111$
    00000A8B E0r00            [12] 1738 	ldh	(_NR32_REG + 0), a
    00000A8D 18 0E            [12] 1739 	jr	00112$
    00000A8F                       1740 00111$:
                                   1741 ;src/music.c:357: NR32_REG = 0x20; 
    00000A8F 3E 20            [ 8] 1742 	ld	a, #0x20
    00000A91 E0r00            [12] 1743 	ldh	(_NR32_REG + 0), a
                                   1744 ;src/music.c:358: NR33_REG = (uint8_t)(f3 & 0xFF); NR34_REG = 0x80 | ((f3 >> 8) & 0x07);
    00000A93 79               [ 4] 1745 	ld	a, c
    00000A94 E0r00            [12] 1746 	ldh	(_NR33_REG + 0), a
    00000A96 78               [ 4] 1747 	ld	a, b
    00000A97 E6 07            [ 8] 1748 	and	a, #0x07
    00000A99 F6 80            [ 8] 1749 	or	a, #0x80
    00000A9B E0r00            [12] 1750 	ldh	(_NR34_REG + 0), a
    00000A9D                       1751 00112$:
                                   1752 ;src/music.c:362: if (tick % 4 == 0) {
    00000A9D FAr00r00         [16] 1753 	ld	a, (_tick)
    00000AA0 4F               [ 4] 1754 	ld	c, a
    00000AA1 21r01r00         [12] 1755 	ld	hl, #_tick + 1
    00000AA4 46               [ 8] 1756 	ld	b, (hl)
    00000AA5 79               [ 4] 1757 	ld	a, c
                                   1758 ;src/music.c:363: NR41_REG = 0x00; NR42_REG = 0xF1; NR43_REG = 0x11; NR44_REG = 0x80;
    00000AA6 E6 03            [ 8] 1759 	and	a,#0x03
    00000AA8 20 10            [12] 1760 	jr	NZ, 00117$
    00000AAA E0r00            [12] 1761 	ldh	(_NR41_REG + 0), a
    00000AAC 3E F1            [ 8] 1762 	ld	a, #0xf1
    00000AAE E0r00            [12] 1763 	ldh	(_NR42_REG + 0), a
    00000AB0 3E 11            [ 8] 1764 	ld	a, #0x11
    00000AB2 E0r00            [12] 1765 	ldh	(_NR43_REG + 0), a
    00000AB4 3E 80            [ 8] 1766 	ld	a, #0x80
    00000AB6 E0r00            [12] 1767 	ldh	(_NR44_REG + 0), a
    00000AB8 18 18            [12] 1768 	jr	00118$
    00000ABA                       1769 00117$:
                                   1770 ;src/music.c:364: } else if (tick % 2 == 0) {
    00000ABA CB 41            [ 8] 1771 	bit	0, c
    00000ABC 20 11            [12] 1772 	jr	NZ, 00114$
                                   1773 ;src/music.c:365: NR41_REG = 0x00; NR42_REG = 0x51; NR43_REG = 0x21; NR44_REG = 0x80;
    00000ABE AF               [ 4] 1774 	xor	a, a
    00000ABF E0r00            [12] 1775 	ldh	(_NR41_REG + 0), a
    00000AC1 3E 51            [ 8] 1776 	ld	a, #0x51
    00000AC3 E0r00            [12] 1777 	ldh	(_NR42_REG + 0), a
    00000AC5 3E 21            [ 8] 1778 	ld	a, #0x21
    00000AC7 E0r00            [12] 1779 	ldh	(_NR43_REG + 0), a
    00000AC9 3E 80            [ 8] 1780 	ld	a, #0x80
    00000ACB E0r00            [12] 1781 	ldh	(_NR44_REG + 0), a
    00000ACD 18 03            [12] 1782 	jr	00118$
    00000ACF                       1783 00114$:
                                   1784 ;src/music.c:367: NR42_REG = 0x00;
    00000ACF AF               [ 4] 1785 	xor	a, a
    00000AD0 E0r00            [12] 1786 	ldh	(_NR42_REG + 0), a
    00000AD2                       1787 00118$:
                                   1788 ;src/music.c:370: tick++;
    00000AD2 21r00r00         [12] 1789 	ld	hl, #_tick
    00000AD5 34               [12] 1790 	inc	(hl)
    00000AD6 20 02            [12] 1791 	jr	NZ, 00443$
    00000AD8 23               [ 8] 1792 	inc	hl
    00000AD9 34               [12] 1793 	inc	(hl)
    00000ADA                       1794 00443$:
                                   1795 ;src/music.c:371: frame_counter = 8; // Veloce e allegro
    00000ADA 21r02r00         [12] 1796 	ld	hl, #_frame_counter
    00000ADD 36 08            [12] 1797 	ld	(hl), #0x08
    00000ADF C3rE7r0D         [16] 1798 	jp	00187$
    00000AE2                       1799 00182$:
                                   1800 ;src/music.c:372: } else if (game_over_mode == 4) {
    00000AE2 FAr04r00         [16] 1801 	ld	a, (#_game_over_mode)
    00000AE5 D6 04            [ 8] 1802 	sub	a, #0x04
    00000AE7 C2r6Fr0B         [16] 1803 	jp	NZ, 00179$
                                   1804 ;src/music.c:374: if (tick >= 16) {
    00000AEA F8 06            [12] 1805 	ldhl	sp,	#6
    00000AEC CB 46            [12] 1806 	bit	0, (hl)
    00000AEE 20 06            [12] 1807 	jr	NZ, 00120$
                                   1808 ;src/music.c:375: tick = 0; // LOOP
    00000AF0 AF               [ 4] 1809 	xor	a, a
    00000AF1 21r00r00         [12] 1810 	ld	hl, #_tick
    00000AF4 22               [ 8] 1811 	ld	(hl+), a
    00000AF5 77               [ 8] 1812 	ld	(hl), a
    00000AF6                       1813 00120$:
                                   1814 ;src/music.c:378: uint16_t f2 = victory_mel[tick];
    00000AF6 FAr00r00         [16] 1815 	ld	a, (_tick)
    00000AF9 4F               [ 4] 1816 	ld	c, a
    00000AFA 21r01r00         [12] 1817 	ld	hl, #_tick + 1
    00000AFD 46               [ 8] 1818 	ld	b, (hl)
    00000AFE CB 21            [ 8] 1819 	sla	c
    00000B00 CB 10            [ 8] 1820 	rl	b
    00000B02 21r59r09         [12] 1821 	ld	hl, #_victory_mel
    00000B05 09               [ 8] 1822 	add	hl, bc
    00000B06 2A               [ 8] 1823 	ld	a,	(hl+)
    00000B07 66               [ 8] 1824 	ld	h, (hl)
                                   1825 ;src/music.c:379: if (f2 == N_REST) {
    00000B08 6F               [ 4] 1826 	ld	l, a
                                   1827 ;src/music.c:380: NR22_REG = 0x00;
    00000B09 B4               [ 4] 1828 	or	a, h
    00000B0A 20 04            [12] 1829 	jr	NZ, 00122$
    00000B0C E0r00            [12] 1830 	ldh	(_NR22_REG + 0), a
    00000B0E 18 14            [12] 1831 	jr	00123$
    00000B10                       1832 00122$:
                                   1833 ;src/music.c:382: NR21_REG = 0x80; NR22_REG = 0xF2;
    00000B10 3E 80            [ 8] 1834 	ld	a, #0x80
    00000B12 E0r00            [12] 1835 	ldh	(_NR21_REG + 0), a
    00000B14 3E F2            [ 8] 1836 	ld	a, #0xf2
    00000B16 E0r00            [12] 1837 	ldh	(_NR22_REG + 0), a
                                   1838 ;src/music.c:383: NR23_REG = (uint8_t)(f2 & 0xFF); NR24_REG = 0x80 | ((f2 >> 8) & 0x07);
    00000B18 E5               [16] 1839 	push	hl
    00000B19 7D               [ 4] 1840 	ld	a, l
    00000B1A E0r00            [12] 1841 	ldh	(_NR23_REG + 0), a
    00000B1C E1               [12] 1842 	pop	hl
    00000B1D 7C               [ 4] 1843 	ld	a, h
    00000B1E E6 07            [ 8] 1844 	and	a, #0x07
    00000B20 F6 80            [ 8] 1845 	or	a, #0x80
    00000B22 E0r00            [12] 1846 	ldh	(_NR24_REG + 0), a
    00000B24                       1847 00123$:
                                   1848 ;src/music.c:386: uint16_t f3 = victory_bass[tick];
    00000B24 21r79r09         [12] 1849 	ld	hl, #_victory_bass
    00000B27 09               [ 8] 1850 	add	hl, bc
    00000B28 2A               [ 8] 1851 	ld	a, (hl+)
    00000B29 4F               [ 4] 1852 	ld	c, a
    00000B2A 46               [ 8] 1853 	ld	b, (hl)
                                   1854 ;src/music.c:387: if (f3 == N_REST) {
    00000B2B 78               [ 4] 1855 	ld	a, b
                                   1856 ;src/music.c:388: NR32_REG = 0x00;
    00000B2C B1               [ 4] 1857 	or	a, c
    00000B2D 20 04            [12] 1858 	jr	NZ, 00125$
    00000B2F E0r00            [12] 1859 	ldh	(_NR32_REG + 0), a
    00000B31 18 0E            [12] 1860 	jr	00126$
    00000B33                       1861 00125$:
                                   1862 ;src/music.c:390: NR32_REG = 0x20; 
    00000B33 3E 20            [ 8] 1863 	ld	a, #0x20
    00000B35 E0r00            [12] 1864 	ldh	(_NR32_REG + 0), a
                                   1865 ;src/music.c:391: NR33_REG = (uint8_t)(f3 & 0xFF); NR34_REG = 0x80 | ((f3 >> 8) & 0x07);
    00000B37 79               [ 4] 1866 	ld	a, c
    00000B38 E0r00            [12] 1867 	ldh	(_NR33_REG + 0), a
    00000B3A 78               [ 4] 1868 	ld	a, b
    00000B3B E6 07            [ 8] 1869 	and	a, #0x07
    00000B3D F6 80            [ 8] 1870 	or	a, #0x80
    00000B3F E0r00            [12] 1871 	ldh	(_NR34_REG + 0), a
    00000B41                       1872 00126$:
                                   1873 ;src/music.c:394: if (tick % 2 == 0) {
    00000B41 FAr00r00         [16] 1874 	ld	a, (_tick)
    00000B44 21r01r00         [12] 1875 	ld	hl, #_tick + 1
    00000B47 4E               [ 8] 1876 	ld	c, (hl)
    00000B48 0F               [ 4] 1877 	rrca
    00000B49 38 11            [12] 1878 	jr	C, 00128$
                                   1879 ;src/music.c:395: NR41_REG = 0x00; NR42_REG = 0x51; NR43_REG = 0x21; NR44_REG = 0x80;
    00000B4B AF               [ 4] 1880 	xor	a, a
    00000B4C E0r00            [12] 1881 	ldh	(_NR41_REG + 0), a
    00000B4E 3E 51            [ 8] 1882 	ld	a, #0x51
    00000B50 E0r00            [12] 1883 	ldh	(_NR42_REG + 0), a
    00000B52 3E 21            [ 8] 1884 	ld	a, #0x21
    00000B54 E0r00            [12] 1885 	ldh	(_NR43_REG + 0), a
    00000B56 3E 80            [ 8] 1886 	ld	a, #0x80
    00000B58 E0r00            [12] 1887 	ldh	(_NR44_REG + 0), a
    00000B5A 18 03            [12] 1888 	jr	00129$
    00000B5C                       1889 00128$:
                                   1890 ;src/music.c:397: NR42_REG = 0x00;
    00000B5C AF               [ 4] 1891 	xor	a, a
    00000B5D E0r00            [12] 1892 	ldh	(_NR42_REG + 0), a
    00000B5F                       1893 00129$:
                                   1894 ;src/music.c:400: tick++;
    00000B5F 21r00r00         [12] 1895 	ld	hl, #_tick
    00000B62 34               [12] 1896 	inc	(hl)
    00000B63 20 02            [12] 1897 	jr	NZ, 00449$
    00000B65 23               [ 8] 1898 	inc	hl
    00000B66 34               [12] 1899 	inc	(hl)
    00000B67                       1900 00449$:
                                   1901 ;src/music.c:401: frame_counter = 6; // Molto veloce e festoso
    00000B67 21r02r00         [12] 1902 	ld	hl, #_frame_counter
    00000B6A 36 06            [12] 1903 	ld	(hl), #0x06
    00000B6C C3rE7r0D         [16] 1904 	jp	00187$
    00000B6F                       1905 00179$:
                                   1906 ;src/music.c:370: tick++;
    00000B6F 21r00r00         [12] 1907 	ld	hl, #_tick
    00000B72 2A               [ 8] 1908 	ld	a, (hl+)
    00000B73 5F               [ 4] 1909 	ld	e, a
    00000B74 56               [ 8] 1910 	ld	d, (hl)
    00000B75 6B               [ 4] 1911 	ld	l, e
    00000B76 62               [ 4] 1912 	ld	h, d
    00000B77 23               [ 8] 1913 	inc	hl
    00000B78 33               [ 8] 1914 	inc	sp
    00000B79 33               [ 8] 1915 	inc	sp
    00000B7A E5               [16] 1916 	push	hl
                                   1917 ;src/music.c:402: } else if (game_over_mode == 1) {
    00000B7B FAr04r00         [16] 1918 	ld	a, (#_game_over_mode)
    00000B7E 3D               [ 4] 1919 	dec	a
    00000B7F C2r59r0C         [16] 1920 	jp	NZ, 00176$
                                   1921 ;src/music.c:404: if (tick >= 64) {
    00000B82 F8 07            [12] 1922 	ldhl	sp,	#7
    00000B84 2A               [ 8] 1923 	ld	a, (hl+)
    00000B85 D6 40            [ 8] 1924 	sub	a, #0x40
    00000B87 7E               [ 8] 1925 	ld	a, (hl)
    00000B88 DE 00            [ 8] 1926 	sbc	a, #0x00
    00000B8A 38 14            [12] 1927 	jr	C, 00131$
                                   1928 ;src/music.c:405: game_over_mode = 2; // Fine
    00000B8C 21r04r00         [12] 1929 	ld	hl, #_game_over_mode
    00000B8F 36 02            [12] 1930 	ld	(hl), #0x02
                                   1931 ;src/music.c:406: NR22_REG = 0x00; NR32_REG = 0x00; NR42_REG = 0x00; NR12_REG = 0x00;
    00000B91 AF               [ 4] 1932 	xor	a, a
    00000B92 E0r00            [12] 1933 	ldh	(_NR22_REG + 0), a
    00000B94 AF               [ 4] 1934 	xor	a, a
    00000B95 E0r00            [12] 1935 	ldh	(_NR32_REG + 0), a
    00000B97 AF               [ 4] 1936 	xor	a, a
    00000B98 E0r00            [12] 1937 	ldh	(_NR42_REG + 0), a
    00000B9A AF               [ 4] 1938 	xor	a, a
    00000B9B E0r00            [12] 1939 	ldh	(_NR12_REG + 0), a
                                   1940 ;src/music.c:407: return;
    00000B9D C3rE7r0D         [16] 1941 	jp	00187$
    00000BA0                       1942 00131$:
                                   1943 ;src/music.c:410: uint16_t f1 = go_arp[tick];
    00000BA0 FAr00r00         [16] 1944 	ld	a, (_tick)
    00000BA3 4F               [ 4] 1945 	ld	c, a
    00000BA4 21r01r00         [12] 1946 	ld	hl, #_tick + 1
    00000BA7 46               [ 8] 1947 	ld	b, (hl)
    00000BA8 CB 21            [ 8] 1948 	sla	c
    00000BAA CB 10            [ 8] 1949 	rl	b
    00000BAC 21r59r08         [12] 1950 	ld	hl, #_go_arp
    00000BAF 09               [ 8] 1951 	add	hl, bc
    00000BB0 2A               [ 8] 1952 	ld	a,	(hl+)
    00000BB1 66               [ 8] 1953 	ld	h, (hl)
    00000BB2 6F               [ 4] 1954 	ld	l, a
                                   1955 ;src/music.c:411: if (f1 != N_SUST) {
    00000BB3 5D               [ 4] 1956 	ld	e, l
    00000BB4 54               [ 4] 1957 	ld	d, h
    00000BB5 7B               [ 4] 1958 	ld	a, e
    00000BB6 A2               [ 4] 1959 	and	a, d
    00000BB7 3C               [ 4] 1960 	inc	a
    00000BB8 28 1F            [12] 1961 	jr	Z, 00136$
                                   1962 ;src/music.c:412: if (f1 == N_REST) {
    00000BBA 7C               [ 4] 1963 	ld	a, h
                                   1964 ;src/music.c:413: NR12_REG = 0x00;
    00000BBB B5               [ 4] 1965 	or	a, l
    00000BBC 20 04            [12] 1966 	jr	NZ, 00133$
    00000BBE E0r00            [12] 1967 	ldh	(_NR12_REG + 0), a
    00000BC0 18 17            [12] 1968 	jr	00136$
    00000BC2                       1969 00133$:
                                   1970 ;src/music.c:415: NR10_REG = 0x00; NR11_REG = 0x80; NR12_REG = 0x61;
    00000BC2 AF               [ 4] 1971 	xor	a, a
    00000BC3 E0r00            [12] 1972 	ldh	(_NR10_REG + 0), a
    00000BC5 3E 80            [ 8] 1973 	ld	a, #0x80
    00000BC7 E0r00            [12] 1974 	ldh	(_NR11_REG + 0), a
    00000BC9 3E 61            [ 8] 1975 	ld	a, #0x61
    00000BCB E0r00            [12] 1976 	ldh	(_NR12_REG + 0), a
                                   1977 ;src/music.c:416: NR13_REG = (uint8_t)(f1 & 0xFF); NR14_REG = 0x80 | ((f1 >> 8) & 0x07);
    00000BCD E5               [16] 1978 	push	hl
    00000BCE 7D               [ 4] 1979 	ld	a, l
    00000BCF E0r00            [12] 1980 	ldh	(_NR13_REG + 0), a
    00000BD1 E1               [12] 1981 	pop	hl
    00000BD2 7C               [ 4] 1982 	ld	a, h
    00000BD3 E6 07            [ 8] 1983 	and	a, #0x07
    00000BD5 F6 80            [ 8] 1984 	or	a, #0x80
    00000BD7 E0r00            [12] 1985 	ldh	(_NR14_REG + 0), a
    00000BD9                       1986 00136$:
                                   1987 ;src/music.c:420: uint16_t f2 = go_mel[tick];
    00000BD9 21r59r07         [12] 1988 	ld	hl, #_go_mel
    00000BDC 09               [ 8] 1989 	add	hl, bc
    00000BDD 2A               [ 8] 1990 	ld	a,	(hl+)
    00000BDE 66               [ 8] 1991 	ld	h, (hl)
    00000BDF 6F               [ 4] 1992 	ld	l, a
                                   1993 ;src/music.c:421: if (f2 != N_SUST) {
    00000BE0 5D               [ 4] 1994 	ld	e, l
    00000BE1 54               [ 4] 1995 	ld	d, h
    00000BE2 7B               [ 4] 1996 	ld	a, e
    00000BE3 A2               [ 4] 1997 	and	a, d
    00000BE4 3C               [ 4] 1998 	inc	a
    00000BE5 28 1C            [12] 1999 	jr	Z, 00141$
                                   2000 ;src/music.c:422: if (f2 == N_REST) {
    00000BE7 7C               [ 4] 2001 	ld	a, h
                                   2002 ;src/music.c:423: NR22_REG = 0x00;
    00000BE8 B5               [ 4] 2003 	or	a, l
    00000BE9 20 04            [12] 2004 	jr	NZ, 00138$
    00000BEB E0r00            [12] 2005 	ldh	(_NR22_REG + 0), a
    00000BED 18 14            [12] 2006 	jr	00141$
    00000BEF                       2007 00138$:
                                   2008 ;src/music.c:425: NR21_REG = 0x80; NR22_REG = 0xF7; // Lento decadimento
    00000BEF 3E 80            [ 8] 2009 	ld	a, #0x80
    00000BF1 E0r00            [12] 2010 	ldh	(_NR21_REG + 0), a
    00000BF3 3E F7            [ 8] 2011 	ld	a, #0xf7
    00000BF5 E0r00            [12] 2012 	ldh	(_NR22_REG + 0), a
                                   2013 ;src/music.c:426: NR23_REG = (uint8_t)(f2 & 0xFF); NR24_REG = 0x80 | ((f2 >> 8) & 0x07);
    00000BF7 E5               [16] 2014 	push	hl
    00000BF8 7D               [ 4] 2015 	ld	a, l
    00000BF9 E0r00            [12] 2016 	ldh	(_NR23_REG + 0), a
    00000BFB E1               [12] 2017 	pop	hl
    00000BFC 7C               [ 4] 2018 	ld	a, h
    00000BFD E6 07            [ 8] 2019 	and	a, #0x07
    00000BFF F6 80            [ 8] 2020 	or	a, #0x80
    00000C01 E0r00            [12] 2021 	ldh	(_NR24_REG + 0), a
    00000C03                       2022 00141$:
                                   2023 ;src/music.c:430: uint16_t f3 = go_bass[tick];
    00000C03 21rD9r07         [12] 2024 	ld	hl, #_go_bass
    00000C06 09               [ 8] 2025 	add	hl, bc
    00000C07 2A               [ 8] 2026 	ld	a, (hl+)
    00000C08 4F               [ 4] 2027 	ld	c, a
    00000C09 46               [ 8] 2028 	ld	b, (hl)
                                   2029 ;src/music.c:431: if (f3 != N_SUST) {
    00000C0A 59               [ 4] 2030 	ld	e, c
    00000C0B 50               [ 4] 2031 	ld	d, b
    00000C0C 7B               [ 4] 2032 	ld	a, e
    00000C0D A2               [ 4] 2033 	and	a, d
    00000C0E 3C               [ 4] 2034 	inc	a
    00000C0F 28 16            [12] 2035 	jr	Z, 00146$
                                   2036 ;src/music.c:432: if (f3 == N_REST) {
    00000C11 78               [ 4] 2037 	ld	a, b
                                   2038 ;src/music.c:433: NR32_REG = 0x00;
    00000C12 B1               [ 4] 2039 	or	a, c
    00000C13 20 04            [12] 2040 	jr	NZ, 00143$
    00000C15 E0r00            [12] 2041 	ldh	(_NR32_REG + 0), a
    00000C17 18 0E            [12] 2042 	jr	00146$
    00000C19                       2043 00143$:
                                   2044 ;src/music.c:435: NR32_REG = 0x20; 
    00000C19 3E 20            [ 8] 2045 	ld	a, #0x20
    00000C1B E0r00            [12] 2046 	ldh	(_NR32_REG + 0), a
                                   2047 ;src/music.c:436: NR33_REG = (uint8_t)(f3 & 0xFF); NR34_REG = 0x80 | ((f3 >> 8) & 0x07);
    00000C1D 79               [ 4] 2048 	ld	a, c
    00000C1E E0r00            [12] 2049 	ldh	(_NR33_REG + 0), a
    00000C20 78               [ 4] 2050 	ld	a, b
    00000C21 E6 07            [ 8] 2051 	and	a, #0x07
    00000C23 F6 80            [ 8] 2052 	or	a, #0x80
    00000C25 E0r00            [12] 2053 	ldh	(_NR34_REG + 0), a
    00000C27                       2054 00146$:
                                   2055 ;src/music.c:440: uint8_t d4 = go_drum[tick];
    00000C27 3ErD9            [ 8] 2056 	ld	a, #<(_go_drum)
    00000C29 21r00r00         [12] 2057 	ld	hl, #_tick
    00000C2C 86               [ 8] 2058 	add	a, (hl)
    00000C2D 23               [ 8] 2059 	inc	hl
    00000C2E 4F               [ 4] 2060 	ld	c, a
    00000C2F 3Es08            [ 8] 2061 	ld	a, #>(_go_drum)
    00000C31 8E               [ 8] 2062 	adc	a, (hl)
    00000C32 47               [ 4] 2063 	ld	b, a
    00000C33 0A               [ 8] 2064 	ld	a, (bc)
                                   2065 ;src/music.c:441: if (d4 == 1) {
                                   2066 ;src/music.c:442: NR41_REG = 0x00; NR42_REG = 0xF4; // Rullante profondo
    00000C34 3D               [ 4] 2067 	dec	a
    00000C35 20 0E            [12] 2068 	jr	NZ, 00148$
    00000C37 E0r00            [12] 2069 	ldh	(_NR41_REG + 0), a
    00000C39 3E F4            [ 8] 2070 	ld	a, #0xf4
    00000C3B E0r00            [12] 2071 	ldh	(_NR42_REG + 0), a
                                   2072 ;src/music.c:443: NR43_REG = 0x33; NR44_REG = 0x80;
    00000C3D 3E 33            [ 8] 2073 	ld	a, #0x33
    00000C3F E0r00            [12] 2074 	ldh	(_NR43_REG + 0), a
    00000C41 3E 80            [ 8] 2075 	ld	a, #0x80
    00000C43 E0r00            [12] 2076 	ldh	(_NR44_REG + 0), a
    00000C45                       2077 00148$:
                                   2078 ;src/music.c:446: tick++;
    00000C45 F8 00            [12] 2079 	ldhl	sp,	#0
    00000C47 7E               [ 8] 2080 	ld	a, (hl)
    00000C48 EAr00r00         [16] 2081 	ld	(#_tick),a
    00000C4B F8 01            [12] 2082 	ldhl	sp,	#1
    00000C4D 7E               [ 8] 2083 	ld	a, (hl)
    00000C4E EAr01r00         [16] 2084 	ld	(#_tick + 1),a
                                   2085 ;src/music.c:447: frame_counter = 20; // Lento e funereo
    00000C51 21r02r00         [12] 2086 	ld	hl, #_frame_counter
    00000C54 36 14            [12] 2087 	ld	(hl), #0x14
    00000C56 C3rE7r0D         [16] 2088 	jp	00187$
    00000C59                       2089 00176$:
                                   2090 ;src/music.c:451: uint8_t part = (tick >> 6) & 0x03; // tick / 64
    00000C59 21r00r00         [12] 2091 	ld	hl, #_tick
    00000C5C 2A               [ 8] 2092 	ld	a, (hl+)
    00000C5D 4F               [ 4] 2093 	ld	c, a
                                   2094 ;src/music.c:452: uint8_t sub = tick & 0x3F;         // tick % 64
    00000C5E 3A               [ 8] 2095 	ld	a, (hl-)
    00000C5F 47               [ 4] 2096 	ld	b, a
    00000C60 CB 38            [ 8] 2097 	srl	b
    00000C62 CB 19            [ 8] 2098 	rr	c
    00000C64 CB 38            [ 8] 2099 	srl	b
    00000C66 CB 19            [ 8] 2100 	rr	c
    00000C68 CB 38            [ 8] 2101 	srl	b
    00000C6A CB 19            [ 8] 2102 	rr	c
    00000C6C CB 38            [ 8] 2103 	srl	b
    00000C6E CB 19            [ 8] 2104 	rr	c
    00000C70 CB 38            [ 8] 2105 	srl	b
    00000C72 CB 19            [ 8] 2106 	rr	c
    00000C74 CB 38            [ 8] 2107 	srl	b
    00000C76 CB 19            [ 8] 2108 	rr	c
    00000C78 79               [ 4] 2109 	ld	a, c
    00000C79 E6 03            [ 8] 2110 	and	a, #0x03
    00000C7B 5F               [ 4] 2111 	ld	e, a
    00000C7C 7E               [ 8] 2112 	ld	a, (hl)
    00000C7D E6 3F            [ 8] 2113 	and	a, #0x3f
    00000C7F F8 02            [12] 2114 	ldhl	sp,	#2
    00000C81 77               [ 8] 2115 	ld	(hl), a
                                   2116 ;src/music.c:456: uint16_t f1 = arp_parts[part][sub];
    00000C82 16 00            [ 8] 2117 	ld	d, #0x00
    00000C84 2A               [ 8] 2118 	ld	a, (hl+)
    00000C85 4F               [ 4] 2119 	ld	c, a
    00000C86 06 00            [ 8] 2120 	ld	b, #0x00
    00000C88 CB 23            [ 8] 2121 	sla	e
    00000C8A CB 12            [ 8] 2122 	rl	d
    00000C8C 7B               [ 4] 2123 	ld	a, e
    00000C8D 22               [ 8] 2124 	ld	(hl+), a
    00000C8E 7A               [ 4] 2125 	ld	a, d
    00000C8F 22               [ 8] 2126 	ld	(hl+), a
    00000C90 CB 21            [ 8] 2127 	sla	c
    00000C92 CB 10            [ 8] 2128 	rl	b
    00000C94 79               [ 4] 2129 	ld	a, c
    00000C95 22               [ 8] 2130 	ld	(hl+), a
    00000C96 70               [ 8] 2131 	ld	(hl), b
                                   2132 ;src/music.c:455: if (sfx_timer == 0 && music_enabled) {
    00000C97 FAr03r00         [16] 2133 	ld	a, (#_sfx_timer)
    00000C9A B7               [ 4] 2134 	or	a, a
    00000C9B 20 43            [12] 2135 	jr	NZ, 00150$
    00000C9D FAr05r00         [16] 2136 	ld	a, (#_music_enabled)
    00000CA0 B7               [ 4] 2137 	or	a, a
    00000CA1 28 3D            [12] 2138 	jr	Z, 00150$
                                   2139 ;src/music.c:456: uint16_t f1 = arp_parts[part][sub];
    00000CA3 11r29r02         [12] 2140 	ld	de, #_arp_parts
    00000CA6 F8 03            [12] 2141 	ldhl	sp,	#3
    00000CA8 2A               [ 8] 2142 	ld	a,	(hl+)
    00000CA9 66               [ 8] 2143 	ld	h, (hl)
    00000CAA 6F               [ 4] 2144 	ld	l, a
    00000CAB 19               [ 8] 2145 	add	hl, de
    00000CAC E5               [16] 2146 	push	hl
    00000CAD 7D               [ 4] 2147 	ld	a, l
    00000CAE F8 09            [12] 2148 	ldhl	sp,	#9
    00000CB0 77               [ 8] 2149 	ld	(hl), a
    00000CB1 E1               [12] 2150 	pop	hl
    00000CB2 7C               [ 4] 2151 	ld	a, h
    00000CB3 F8 08            [12] 2152 	ldhl	sp,	#8
    00000CB5 32               [ 8] 2153 	ld	(hl-), a
    00000CB6 2A               [ 8] 2154 	ld	a, (hl+)
    00000CB7 5F               [ 4] 2155 	ld	e, a
    00000CB8 3A               [ 8] 2156 	ld	a, (hl-)
    00000CB9 57               [ 4] 2157 	ld	d, a
    00000CBA 1A               [ 8] 2158 	ld	a, (de)
    00000CBB 22               [ 8] 2159 	ld	(hl+), a
    00000CBC 13               [ 8] 2160 	inc	de
    00000CBD 1A               [ 8] 2161 	ld	a, (de)
    00000CBE 32               [ 8] 2162 	ld	(hl-), a
    00000CBF 2A               [ 8] 2163 	ld	a, (hl+)
    00000CC0 5F               [ 4] 2164 	ld	e, a
    00000CC1 56               [ 8] 2165 	ld	d, (hl)
    00000CC2 F8 05            [12] 2166 	ldhl	sp,	#5
    00000CC4 2A               [ 8] 2167 	ld	a,	(hl+)
    00000CC5 66               [ 8] 2168 	ld	h, (hl)
    00000CC6 6F               [ 4] 2169 	ld	l, a
    00000CC7 19               [ 8] 2170 	add	hl, de
    00000CC8 2A               [ 8] 2171 	ld	a, (hl+)
    00000CC9 4F               [ 4] 2172 	ld	c, a
    00000CCA 46               [ 8] 2173 	ld	b, (hl)
                                   2174 ;src/music.c:457: NR10_REG = 0x00; 
    00000CCB AF               [ 4] 2175 	xor	a, a
    00000CCC E0r00            [12] 2176 	ldh	(_NR10_REG + 0), a
                                   2177 ;src/music.c:458: NR11_REG = 0x80; 
    00000CCE 3E 80            [ 8] 2178 	ld	a, #0x80
    00000CD0 E0r00            [12] 2179 	ldh	(_NR11_REG + 0), a
                                   2180 ;src/music.c:459: NR12_REG = 0x51; // Volume basso, decadimento rapido
    00000CD2 3E 51            [ 8] 2181 	ld	a, #0x51
    00000CD4 E0r00            [12] 2182 	ldh	(_NR12_REG + 0), a
                                   2183 ;src/music.c:460: NR13_REG = (uint8_t)(f1 & 0xFF);
    00000CD6 79               [ 4] 2184 	ld	a, c
    00000CD7 E0r00            [12] 2185 	ldh	(_NR13_REG + 0), a
                                   2186 ;src/music.c:461: NR14_REG = 0x80 | ((f1 >> 8) & 0x07);
    00000CD9 78               [ 4] 2187 	ld	a, b
    00000CDA E6 07            [ 8] 2188 	and	a, #0x07
    00000CDC F6 80            [ 8] 2189 	or	a, #0x80
    00000CDE E0r00            [12] 2190 	ldh	(_NR14_REG + 0), a
    00000CE0                       2191 00150$:
                                   2192 ;src/music.c:465: if (music_enabled) {
    00000CE0 FAr05r00         [16] 2193 	ld	a, (#_music_enabled)
    00000CE3 B7               [ 4] 2194 	or	a, a
    00000CE4 28 39            [12] 2195 	jr	Z, 00156$
                                   2196 ;src/music.c:466: uint16_t f2 = mel_parts[part][sub];
    00000CE6 01r31r04         [12] 2197 	ld	bc, #_mel_parts+0
    00000CE9 F8 03            [12] 2198 	ldhl	sp,	#3
    00000CEB 2A               [ 8] 2199 	ld	a,	(hl+)
    00000CEC 66               [ 8] 2200 	ld	h, (hl)
    00000CED 6F               [ 4] 2201 	ld	l, a
    00000CEE 09               [ 8] 2202 	add	hl, bc
    00000CEF 2A               [ 8] 2203 	ld	a, (hl+)
    00000CF0 4F               [ 4] 2204 	ld	c, a
    00000CF1 46               [ 8] 2205 	ld	b, (hl)
    00000CF2 F8 05            [12] 2206 	ldhl	sp,	#5
    00000CF4 2A               [ 8] 2207 	ld	a,	(hl+)
    00000CF5 66               [ 8] 2208 	ld	h, (hl)
    00000CF6 6F               [ 4] 2209 	ld	l, a
    00000CF7 09               [ 8] 2210 	add	hl, bc
    00000CF8 2A               [ 8] 2211 	ld	a, (hl+)
    00000CF9 4F               [ 4] 2212 	ld	c, a
    00000CFA 46               [ 8] 2213 	ld	b, (hl)
                                   2214 ;src/music.c:467: if (f2 == N_REST) {
    00000CFB 78               [ 4] 2215 	ld	a, b
                                   2216 ;src/music.c:468: NR21_REG = 0x00; NR22_REG = 0x00; NR23_REG = 0x00; NR24_REG = 0x80;
    00000CFC B1               [ 4] 2217 	or	a, c
    00000CFD 20 0E            [12] 2218 	jr	NZ, 00153$
    00000CFF E0r00            [12] 2219 	ldh	(_NR21_REG + 0), a
    00000D01 AF               [ 4] 2220 	xor	a, a
    00000D02 E0r00            [12] 2221 	ldh	(_NR22_REG + 0), a
    00000D04 AF               [ 4] 2222 	xor	a, a
    00000D05 E0r00            [12] 2223 	ldh	(_NR23_REG + 0), a
    00000D07 3E 80            [ 8] 2224 	ld	a, #0x80
    00000D09 E0r00            [12] 2225 	ldh	(_NR24_REG + 0), a
    00000D0B 18 12            [12] 2226 	jr	00156$
    00000D0D                       2227 00153$:
                                   2228 ;src/music.c:470: NR21_REG = 0x80; 
    00000D0D 3E 80            [ 8] 2229 	ld	a, #0x80
    00000D0F E0r00            [12] 2230 	ldh	(_NR21_REG + 0), a
                                   2231 ;src/music.c:471: NR22_REG = 0xF2; // Volume alto
    00000D11 3E F2            [ 8] 2232 	ld	a, #0xf2
    00000D13 E0r00            [12] 2233 	ldh	(_NR22_REG + 0), a
                                   2234 ;src/music.c:472: NR23_REG = (uint8_t)(f2 & 0xFF);
    00000D15 79               [ 4] 2235 	ld	a, c
    00000D16 E0r00            [12] 2236 	ldh	(_NR23_REG + 0), a
                                   2237 ;src/music.c:473: NR24_REG = 0x80 | ((f2 >> 8) & 0x07);
    00000D18 78               [ 4] 2238 	ld	a, b
    00000D19 E6 07            [ 8] 2239 	and	a, #0x07
    00000D1B F6 80            [ 8] 2240 	or	a, #0x80
    00000D1D E0r00            [12] 2241 	ldh	(_NR24_REG + 0), a
    00000D1F                       2242 00156$:
                                   2243 ;src/music.c:478: if (music_enabled) {
    00000D1F FAr05r00         [16] 2244 	ld	a, (#_music_enabled)
    00000D22 B7               [ 4] 2245 	or	a, a
    00000D23 28 2F            [12] 2246 	jr	Z, 00161$
                                   2247 ;src/music.c:479: uint16_t f3 = bass_parts[part][sub];
    00000D25 01r39r06         [12] 2248 	ld	bc, #_bass_parts+0
    00000D28 F8 03            [12] 2249 	ldhl	sp,	#3
    00000D2A 2A               [ 8] 2250 	ld	a,	(hl+)
    00000D2B 66               [ 8] 2251 	ld	h, (hl)
    00000D2C 6F               [ 4] 2252 	ld	l, a
    00000D2D 09               [ 8] 2253 	add	hl, bc
    00000D2E 2A               [ 8] 2254 	ld	a, (hl+)
    00000D2F 4F               [ 4] 2255 	ld	c, a
    00000D30 46               [ 8] 2256 	ld	b, (hl)
    00000D31 F8 05            [12] 2257 	ldhl	sp,	#5
    00000D33 2A               [ 8] 2258 	ld	a,	(hl+)
    00000D34 66               [ 8] 2259 	ld	h, (hl)
    00000D35 6F               [ 4] 2260 	ld	l, a
    00000D36 09               [ 8] 2261 	add	hl, bc
    00000D37 2A               [ 8] 2262 	ld	a, (hl+)
    00000D38 4F               [ 4] 2263 	ld	c, a
    00000D39 46               [ 8] 2264 	ld	b, (hl)
                                   2265 ;src/music.c:480: if (f3 == N_REST) {
    00000D3A 78               [ 4] 2266 	ld	a, b
                                   2267 ;src/music.c:481: NR32_REG = 0x00; // Vol 0
    00000D3B B1               [ 4] 2268 	or	a, c
    00000D3C 20 08            [12] 2269 	jr	NZ, 00158$
    00000D3E E0r00            [12] 2270 	ldh	(_NR32_REG + 0), a
                                   2271 ;src/music.c:482: NR34_REG = 0x80;
    00000D40 3E 80            [ 8] 2272 	ld	a, #0x80
    00000D42 E0r00            [12] 2273 	ldh	(_NR34_REG + 0), a
    00000D44 18 0E            [12] 2274 	jr	00161$
    00000D46                       2275 00158$:
                                   2276 ;src/music.c:484: NR32_REG = 0x20; // Vol 100%
    00000D46 3E 20            [ 8] 2277 	ld	a, #0x20
    00000D48 E0r00            [12] 2278 	ldh	(_NR32_REG + 0), a
                                   2279 ;src/music.c:485: NR33_REG = (uint8_t)(f3 & 0xFF);
    00000D4A 79               [ 4] 2280 	ld	a, c
    00000D4B E0r00            [12] 2281 	ldh	(_NR33_REG + 0), a
                                   2282 ;src/music.c:486: NR34_REG = 0x80 | ((f3 >> 8) & 0x07);
    00000D4D 78               [ 4] 2283 	ld	a, b
    00000D4E E6 07            [ 8] 2284 	and	a, #0x07
    00000D50 F6 80            [ 8] 2285 	or	a, #0x80
    00000D52 E0r00            [12] 2286 	ldh	(_NR34_REG + 0), a
    00000D54                       2287 00161$:
                                   2288 ;src/music.c:491: if (sfx_timer == 0 && music_enabled) {
    00000D54 FAr03r00         [16] 2289 	ld	a, (#_sfx_timer)
    00000D57 B7               [ 4] 2290 	or	a, a
    00000D58 20 6B            [12] 2291 	jr	NZ, 00171$
    00000D5A FAr05r00         [16] 2292 	ld	a, (#_music_enabled)
    00000D5D B7               [ 4] 2293 	or	a, a
    00000D5E 28 65            [12] 2294 	jr	Z, 00171$
                                   2295 ;src/music.c:492: uint8_t d4 = drum_parts[part][sub];
    00000D60 11r51r07         [12] 2296 	ld	de, #_drum_parts
    00000D63 F8 03            [12] 2297 	ldhl	sp,	#3
    00000D65 2A               [ 8] 2298 	ld	a,	(hl+)
    00000D66 66               [ 8] 2299 	ld	h, (hl)
    00000D67 6F               [ 4] 2300 	ld	l, a
    00000D68 19               [ 8] 2301 	add	hl, de
    00000D69 E5               [16] 2302 	push	hl
    00000D6A 7D               [ 4] 2303 	ld	a, l
    00000D6B F8 09            [12] 2304 	ldhl	sp,	#9
    00000D6D 77               [ 8] 2305 	ld	(hl), a
    00000D6E E1               [12] 2306 	pop	hl
    00000D6F 7C               [ 4] 2307 	ld	a, h
    00000D70 F8 08            [12] 2308 	ldhl	sp,	#8
    00000D72 32               [ 8] 2309 	ld	(hl-), a
    00000D73 2A               [ 8] 2310 	ld	a, (hl+)
    00000D74 5F               [ 4] 2311 	ld	e, a
    00000D75 3A               [ 8] 2312 	ld	a, (hl-)
    00000D76 57               [ 4] 2313 	ld	d, a
    00000D77 1A               [ 8] 2314 	ld	a, (de)
    00000D78 22               [ 8] 2315 	ld	(hl+), a
    00000D79 13               [ 8] 2316 	inc	de
    00000D7A 1A               [ 8] 2317 	ld	a, (de)
    00000D7B 32               [ 8] 2318 	ld	(hl-), a
    00000D7C 2A               [ 8] 2319 	ld	a, (hl+)
    00000D7D 5F               [ 4] 2320 	ld	e, a
    00000D7E 56               [ 8] 2321 	ld	d, (hl)
    00000D7F F8 02            [12] 2322 	ldhl	sp,	#2
    00000D81 6E               [ 8] 2323 	ld	l, (hl)
    00000D82 26 00            [ 8] 2324 	ld	h, #0x00
    00000D84 19               [ 8] 2325 	add	hl, de
    00000D85 4D               [ 4] 2326 	ld	c, l
    00000D86 44               [ 4] 2327 	ld	b, h
    00000D87 0A               [ 8] 2328 	ld	a, (bc)
                                   2329 ;src/music.c:493: if (d4 == 1) { // Kick
    00000D88 FE 01            [ 8] 2330 	cp	a, #0x01
    00000D8A 20 11            [12] 2331 	jr	NZ, 00168$
                                   2332 ;src/music.c:494: NR41_REG = 0x00;
    00000D8C AF               [ 4] 2333 	xor	a, a
    00000D8D E0r00            [12] 2334 	ldh	(_NR41_REG + 0), a
                                   2335 ;src/music.c:495: NR42_REG = 0xF1;
    00000D8F 3E F1            [ 8] 2336 	ld	a, #0xf1
    00000D91 E0r00            [12] 2337 	ldh	(_NR42_REG + 0), a
                                   2338 ;src/music.c:496: NR43_REG = 0x11;
    00000D93 3E 11            [ 8] 2339 	ld	a, #0x11
    00000D95 E0r00            [12] 2340 	ldh	(_NR43_REG + 0), a
                                   2341 ;src/music.c:497: NR44_REG = 0x80;
    00000D97 3E 80            [ 8] 2342 	ld	a, #0x80
    00000D99 E0r00            [12] 2343 	ldh	(_NR44_REG + 0), a
    00000D9B 18 28            [12] 2344 	jr	00171$
    00000D9D                       2345 00168$:
                                   2346 ;src/music.c:498: } else if (d4 == 2) { // Snare
    00000D9D FE 02            [ 8] 2347 	cp	a, #0x02
    00000D9F 20 11            [12] 2348 	jr	NZ, 00165$
                                   2349 ;src/music.c:499: NR41_REG = 0x00;
    00000DA1 AF               [ 4] 2350 	xor	a, a
    00000DA2 E0r00            [12] 2351 	ldh	(_NR41_REG + 0), a
                                   2352 ;src/music.c:500: NR42_REG = 0xF2;
    00000DA4 3E F2            [ 8] 2353 	ld	a, #0xf2
    00000DA6 E0r00            [12] 2354 	ldh	(_NR42_REG + 0), a
                                   2355 ;src/music.c:501: NR43_REG = 0x51;
    00000DA8 3E 51            [ 8] 2356 	ld	a, #0x51
    00000DAA E0r00            [12] 2357 	ldh	(_NR43_REG + 0), a
                                   2358 ;src/music.c:502: NR44_REG = 0x80;
    00000DAC 3E 80            [ 8] 2359 	ld	a, #0x80
    00000DAE E0r00            [12] 2360 	ldh	(_NR44_REG + 0), a
    00000DB0 18 13            [12] 2361 	jr	00171$
    00000DB2                       2362 00165$:
                                   2363 ;src/music.c:503: } else if (d4 == 3) { // Hi-Hat
    00000DB2 D6 03            [ 8] 2364 	sub	a, #0x03
    00000DB4 20 0F            [12] 2365 	jr	NZ, 00171$
                                   2366 ;src/music.c:504: NR41_REG = 0x00;
    00000DB6 AF               [ 4] 2367 	xor	a, a
    00000DB7 E0r00            [12] 2368 	ldh	(_NR41_REG + 0), a
                                   2369 ;src/music.c:505: NR42_REG = 0x51;
    00000DB9 3E 51            [ 8] 2370 	ld	a, #0x51
    00000DBB E0r00            [12] 2371 	ldh	(_NR42_REG + 0), a
                                   2372 ;src/music.c:506: NR43_REG = 0x21;
    00000DBD 3E 21            [ 8] 2373 	ld	a, #0x21
    00000DBF E0r00            [12] 2374 	ldh	(_NR43_REG + 0), a
                                   2375 ;src/music.c:507: NR44_REG = 0x80;
    00000DC1 3E 80            [ 8] 2376 	ld	a, #0x80
    00000DC3 E0r00            [12] 2377 	ldh	(_NR44_REG + 0), a
    00000DC5                       2378 00171$:
                                   2379 ;src/music.c:512: tick++;
    00000DC5 F8 00            [12] 2380 	ldhl	sp,	#0
    00000DC7 7E               [ 8] 2381 	ld	a, (hl)
    00000DC8 EAr00r00         [16] 2382 	ld	(#_tick),a
    00000DCB F8 01            [12] 2383 	ldhl	sp,	#1
    00000DCD 7E               [ 8] 2384 	ld	a, (hl)
    00000DCE 21r01r00         [12] 2385 	ld	hl, #_tick + 1
                                   2386 ;src/music.c:513: if (tick >= 256) tick = 0; // Loop completo
    00000DD1 32               [ 8] 2387 	ld	(hl-), a
    00000DD2 2A               [ 8] 2388 	ld	a, (hl+)
    00000DD3 7E               [ 8] 2389 	ld	a, (hl)
    00000DD4 D6 01            [ 8] 2390 	sub	a, #0x01
    00000DD6 38 04            [12] 2391 	jr	C, 00174$
    00000DD8 2B               [ 8] 2392 	dec	hl
    00000DD9 AF               [ 4] 2393 	xor	a, a
    00000DDA 22               [ 8] 2394 	ld	(hl+), a
    00000DDB 77               [ 8] 2395 	ld	(hl), a
    00000DDC                       2396 00174$:
                                   2397 ;src/music.c:515: frame_counter = FRAMES_PER_TICK;
    00000DDC 21r02r00         [12] 2398 	ld	hl, #_frame_counter
    00000DDF 36 08            [12] 2399 	ld	(hl), #0x08
    00000DE1 18 04            [12] 2400 	jr	00187$
    00000DE3                       2401 00185$:
                                   2402 ;src/music.c:518: frame_counter--;
    00000DE3 21r02r00         [12] 2403 	ld	hl, #_frame_counter
    00000DE6 35               [12] 2404 	dec	(hl)
    00000DE7                       2405 00187$:
                                   2406 ;src/music.c:520: }
    00000DE7 E8 09            [16] 2407 	add	sp, #9
    00000DE9 C9               [16] 2408 	ret
                                   2409 ;src/music.c:522: void play_game_over_music(void) {
                                   2410 ;	---------------------------------
                                   2411 ; Function play_game_over_music
                                   2412 ; ---------------------------------
    00000DEA                       2413 _play_game_over_music::
                                   2414 ;src/music.c:524: game_over_mode = 1;
    00000DEA 21r04r00         [12] 2415 	ld	hl, #_game_over_mode
    00000DED 36 01            [12] 2416 	ld	(hl), #0x01
                                   2417 ;src/music.c:525: tick = 0;
    00000DEF AF               [ 4] 2418 	xor	a, a
    00000DF0 21r00r00         [12] 2419 	ld	hl, #_tick
    00000DF3 22               [ 8] 2420 	ld	(hl+), a
    00000DF4 77               [ 8] 2421 	ld	(hl), a
                                   2422 ;src/music.c:526: frame_counter = 0;
                                   2423 ;src/music.c:528: NR22_REG = 0x00; NR32_REG = 0x00; NR42_REG = 0x00; // Zittisce tutto
    00000DF5 AF               [ 4] 2424 	xor	a, a
    00000DF6 EAr02r00         [16] 2425 	ld	(#_frame_counter), a
    00000DF9 E0r00            [12] 2426 	ldh	(_NR22_REG + 0), a
    00000DFB AF               [ 4] 2427 	xor	a, a
    00000DFC E0r00            [12] 2428 	ldh	(_NR32_REG + 0), a
    00000DFE AF               [ 4] 2429 	xor	a, a
    00000DFF E0r00            [12] 2430 	ldh	(_NR42_REG + 0), a
                                   2431 ;src/music.c:529: }
    00000E01 C9               [16] 2432 	ret
                                   2433 ;src/music.c:531: void play_sfx_explosion(void) {
                                   2434 ;	---------------------------------
                                   2435 ; Function play_sfx_explosion
                                   2436 ; ---------------------------------
    00000E02                       2437 _play_sfx_explosion::
                                   2438 ;src/music.c:533: NR42_REG = 0xF7; 
    00000E02 3E F7            [ 8] 2439 	ld	a, #0xf7
    00000E04 E0r00            [12] 2440 	ldh	(_NR42_REG + 0), a
                                   2441 ;src/music.c:534: NR43_REG = 0x6E; 
    00000E06 3E 6E            [ 8] 2442 	ld	a, #0x6e
    00000E08 E0r00            [12] 2443 	ldh	(_NR43_REG + 0), a
                                   2444 ;src/music.c:535: NR44_REG = 0xC0;
    00000E0A 3E C0            [ 8] 2445 	ld	a, #0xc0
    00000E0C E0r00            [12] 2446 	ldh	(_NR44_REG + 0), a
                                   2447 ;src/music.c:536: sfx_timer = 30; // Proteggi CH4 e CH1
    00000E0E 21r03r00         [12] 2448 	ld	hl, #_sfx_timer
    00000E11 36 1E            [12] 2449 	ld	(hl), #0x1e
                                   2450 ;src/music.c:537: }
    00000E13 C9               [16] 2451 	ret
                                   2452 ;src/music.c:539: void play_sfx_bomb_drop(void) {
                                   2453 ;	---------------------------------
                                   2454 ; Function play_sfx_bomb_drop
                                   2455 ; ---------------------------------
    00000E14                       2456 _play_sfx_bomb_drop::
                                   2457 ;src/music.c:541: NR41_REG = 0x01; // Corto
    00000E14 3E 01            [ 8] 2458 	ld	a, #0x01
    00000E16 E0r00            [12] 2459 	ldh	(_NR41_REG + 0), a
                                   2460 ;src/music.c:542: NR42_REG = 0xA2; // Volume alto, decadimento rapido
    00000E18 3E A2            [ 8] 2461 	ld	a, #0xa2
    00000E1A E0r00            [12] 2462 	ldh	(_NR42_REG + 0), a
                                   2463 ;src/music.c:543: NR43_REG = 0x22; // Frequenza alta, noise
    00000E1C 3E 22            [ 8] 2464 	ld	a, #0x22
    00000E1E E0r00            [12] 2465 	ldh	(_NR43_REG + 0), a
                                   2466 ;src/music.c:544: NR44_REG = 0xC0; // Trigger
    00000E20 3E C0            [ 8] 2467 	ld	a, #0xc0
    00000E22 E0r00            [12] 2468 	ldh	(_NR44_REG + 0), a
                                   2469 ;src/music.c:545: sfx_timer = 15; // Proteggi per la durata del suono
    00000E24 21r03r00         [12] 2470 	ld	hl, #_sfx_timer
    00000E27 36 0F            [12] 2471 	ld	(hl), #0x0f
                                   2472 ;src/music.c:546: }
    00000E29 C9               [16] 2473 	ret
                                   2474 ;src/music.c:548: void play_title_music(void) {
                                   2475 ;	---------------------------------
                                   2476 ; Function play_title_music
                                   2477 ; ---------------------------------
    00000E2A                       2478 _play_title_music::
                                   2479 ;src/music.c:550: NR52_REG = 0x00;
    00000E2A AF               [ 4] 2480 	xor	a, a
    00000E2B E0r00            [12] 2481 	ldh	(_NR52_REG + 0), a
                                   2482 ;src/music.c:551: NR52_REG = 0x80;
    00000E2D 3E 80            [ 8] 2483 	ld	a, #0x80
    00000E2F E0r00            [12] 2484 	ldh	(_NR52_REG + 0), a
                                   2485 ;src/music.c:552: NR50_REG = 0x77;
    00000E31 3E 77            [ 8] 2486 	ld	a, #0x77
    00000E33 E0r00            [12] 2487 	ldh	(_NR50_REG + 0), a
                                   2488 ;src/music.c:553: NR51_REG = 0xFF;
    00000E35 3E FF            [ 8] 2489 	ld	a, #0xff
    00000E37 E0r00            [12] 2490 	ldh	(_NR51_REG + 0), a
                                   2491 ;src/music.c:556: NR30_REG = 0x00;
    00000E39 AF               [ 4] 2492 	xor	a, a
    00000E3A E0r00            [12] 2493 	ldh	(_NR30_REG + 0), a
                                   2494 ;src/music.c:558: for (uint8_t i = 0; i < 16; i++) {
    00000E3C 0E 00            [ 8] 2495 	ld	c, #0x00
    00000E3E                       2496 00103$:
                                   2497 ;src/music.c:559: wave_ptr[i] = wave_ram[i];
    00000E3E 79               [ 4] 2498 	ld	a,c
    00000E3F FE 10            [ 8] 2499 	cp	a,#0x10
    00000E41 30 13            [12] 2500 	jr	NC, 00101$
    00000E43 C6 30            [ 8] 2501 	add	a, #0x30
    00000E45 5F               [ 4] 2502 	ld	e, a
    00000E46 3E 00            [ 8] 2503 	ld	a, #0x00
    00000E48 CE FF            [ 8] 2504 	adc	a, #0xff
    00000E4A 57               [ 4] 2505 	ld	d, a
    00000E4B 21r41r06         [12] 2506 	ld	hl, #_wave_ram
    00000E4E 06 00            [ 8] 2507 	ld	b, #0x00
    00000E50 09               [ 8] 2508 	add	hl, bc
    00000E51 7E               [ 8] 2509 	ld	a, (hl)
    00000E52 12               [ 8] 2510 	ld	(de), a
                                   2511 ;src/music.c:558: for (uint8_t i = 0; i < 16; i++) {
    00000E53 0C               [ 4] 2512 	inc	c
    00000E54 18 E8            [12] 2513 	jr	00103$
    00000E56                       2514 00101$:
                                   2515 ;src/music.c:561: NR30_REG = 0x80;
    00000E56 3E 80            [ 8] 2516 	ld	a, #0x80
    00000E58 E0r00            [12] 2517 	ldh	(_NR30_REG + 0), a
                                   2518 ;src/music.c:563: game_over_mode = 3;
    00000E5A 21r04r00         [12] 2519 	ld	hl, #_game_over_mode
    00000E5D 36 03            [12] 2520 	ld	(hl), #0x03
                                   2521 ;src/music.c:564: tick = 0;
    00000E5F AF               [ 4] 2522 	xor	a, a
    00000E60 21r00r00         [12] 2523 	ld	hl, #_tick
    00000E63 22               [ 8] 2524 	ld	(hl+), a
    00000E64 77               [ 8] 2525 	ld	(hl), a
                                   2526 ;src/music.c:565: frame_counter = 0;
                                   2527 ;src/music.c:567: NR12_REG = 0; NR22_REG = 0; NR32_REG = 0; NR42_REG = 0;
    00000E65 AF               [ 4] 2528 	xor	a, a
    00000E66 EAr02r00         [16] 2529 	ld	(#_frame_counter), a
    00000E69 E0r00            [12] 2530 	ldh	(_NR12_REG + 0), a
    00000E6B AF               [ 4] 2531 	xor	a, a
    00000E6C E0r00            [12] 2532 	ldh	(_NR22_REG + 0), a
    00000E6E AF               [ 4] 2533 	xor	a, a
    00000E6F E0r00            [12] 2534 	ldh	(_NR32_REG + 0), a
    00000E71 AF               [ 4] 2535 	xor	a, a
    00000E72 E0r00            [12] 2536 	ldh	(_NR42_REG + 0), a
                                   2537 ;src/music.c:568: }
    00000E74 C9               [16] 2538 	ret
                                   2539 ;src/music.c:570: void play_victory_music(void) {
                                   2540 ;	---------------------------------
                                   2541 ; Function play_victory_music
                                   2542 ; ---------------------------------
    00000E75                       2543 _play_victory_music::
                                   2544 ;src/music.c:572: NR52_REG = 0x00;
    00000E75 AF               [ 4] 2545 	xor	a, a
    00000E76 E0r00            [12] 2546 	ldh	(_NR52_REG + 0), a
                                   2547 ;src/music.c:573: NR52_REG = 0x80;
    00000E78 3E 80            [ 8] 2548 	ld	a, #0x80
    00000E7A E0r00            [12] 2549 	ldh	(_NR52_REG + 0), a
                                   2550 ;src/music.c:574: NR50_REG = 0x77;
    00000E7C 3E 77            [ 8] 2551 	ld	a, #0x77
    00000E7E E0r00            [12] 2552 	ldh	(_NR50_REG + 0), a
                                   2553 ;src/music.c:575: NR51_REG = 0xFF;
    00000E80 3E FF            [ 8] 2554 	ld	a, #0xff
    00000E82 E0r00            [12] 2555 	ldh	(_NR51_REG + 0), a
                                   2556 ;src/music.c:577: NR30_REG = 0x00;
    00000E84 AF               [ 4] 2557 	xor	a, a
    00000E85 E0r00            [12] 2558 	ldh	(_NR30_REG + 0), a
                                   2559 ;src/music.c:579: for (uint8_t i = 0; i < 16; i++) {
    00000E87 0E 00            [ 8] 2560 	ld	c, #0x00
    00000E89                       2561 00103$:
                                   2562 ;src/music.c:580: wave_ptr[i] = wave_ram[i];
    00000E89 79               [ 4] 2563 	ld	a,c
    00000E8A FE 10            [ 8] 2564 	cp	a,#0x10
    00000E8C 30 13            [12] 2565 	jr	NC, 00101$
    00000E8E C6 30            [ 8] 2566 	add	a, #0x30
    00000E90 5F               [ 4] 2567 	ld	e, a
    00000E91 3E 00            [ 8] 2568 	ld	a, #0x00
    00000E93 CE FF            [ 8] 2569 	adc	a, #0xff
    00000E95 57               [ 4] 2570 	ld	d, a
    00000E96 21r41r06         [12] 2571 	ld	hl, #_wave_ram
    00000E99 06 00            [ 8] 2572 	ld	b, #0x00
    00000E9B 09               [ 8] 2573 	add	hl, bc
    00000E9C 7E               [ 8] 2574 	ld	a, (hl)
    00000E9D 12               [ 8] 2575 	ld	(de), a
                                   2576 ;src/music.c:579: for (uint8_t i = 0; i < 16; i++) {
    00000E9E 0C               [ 4] 2577 	inc	c
    00000E9F 18 E8            [12] 2578 	jr	00103$
    00000EA1                       2579 00101$:
                                   2580 ;src/music.c:582: NR30_REG = 0x80;
    00000EA1 3E 80            [ 8] 2581 	ld	a, #0x80
    00000EA3 E0r00            [12] 2582 	ldh	(_NR30_REG + 0), a
                                   2583 ;src/music.c:584: game_over_mode = 4; // Victory mode
    00000EA5 21r04r00         [12] 2584 	ld	hl, #_game_over_mode
    00000EA8 36 04            [12] 2585 	ld	(hl), #0x04
                                   2586 ;src/music.c:585: tick = 0;
    00000EAA AF               [ 4] 2587 	xor	a, a
    00000EAB 21r00r00         [12] 2588 	ld	hl, #_tick
    00000EAE 22               [ 8] 2589 	ld	(hl+), a
    00000EAF 77               [ 8] 2590 	ld	(hl), a
                                   2591 ;src/music.c:586: frame_counter = 0;
                                   2592 ;src/music.c:588: NR12_REG = 0; NR22_REG = 0; NR32_REG = 0; NR42_REG = 0;
    00000EB0 AF               [ 4] 2593 	xor	a, a
    00000EB1 EAr02r00         [16] 2594 	ld	(#_frame_counter), a
    00000EB4 E0r00            [12] 2595 	ldh	(_NR12_REG + 0), a
    00000EB6 AF               [ 4] 2596 	xor	a, a
    00000EB7 E0r00            [12] 2597 	ldh	(_NR22_REG + 0), a
    00000EB9 AF               [ 4] 2598 	xor	a, a
    00000EBA E0r00            [12] 2599 	ldh	(_NR32_REG + 0), a
    00000EBC AF               [ 4] 2600 	xor	a, a
    00000EBD E0r00            [12] 2601 	ldh	(_NR42_REG + 0), a
                                   2602 ;src/music.c:589: }
    00000EBF C9               [16] 2603 	ret
                                   2604 	.area _CODE
                                   2605 	.area _INITIALIZER
    00000000                       2606 __xinit__tick:
    00000000 00 00                 2607 	.dw #0x0000
    00000002                       2608 __xinit__frame_counter:
    00000002 00                    2609 	.db #0x00	; 0
    00000003                       2610 __xinit__sfx_timer:
    00000003 00                    2611 	.db #0x00	; 0
    00000004                       2612 __xinit__game_over_mode:
    00000004 00                    2613 	.db #0x00	; 0
    00000005                       2614 __xinit__music_enabled:
    00000005 01                    2615 	.db #0x01	; 1
                                   2616 	.area _CABS (ABS)
