                                      1 ;--------------------------------------------------------
                                      2 ; File Created by SDCC : free open source ISO C Compiler
                                      3 ; Version 4.5.1 #15267 (Linux)
                                      4 ;--------------------------------------------------------
                                      5 	.module rat
                                      6 	
                                      7 ;--------------------------------------------------------
                                      8 ; Public variables in this module
                                      9 ;--------------------------------------------------------
                                     10 	.globl _spawn_rat
                                     11 	.globl _rand
                                     12 	.globl _set_sprite_data
                                     13 	.globl _play_sfx_plop
                                     14 	.globl _play_sfx_moan
                                     15 	.globl _victory_flag
                                     16 	.globl _game_over_flag
                                     17 	.globl _RatSpriteData
                                     18 	.globl _init_rats
                                     19 	.globl _update_rats
                                     20 	.globl _kill_rats_at
                                     21 ;--------------------------------------------------------
                                     22 ; special function registers
                                     23 ;--------------------------------------------------------
                                     24 	.area _HRAM
                                     25 ;--------------------------------------------------------
                                     26 ; ram data
                                     27 ;--------------------------------------------------------
                                     28 	.area _DATA
    00000000                         29 _rats:
    00000000                         30 	.ds 120
    00000078                         31 _update_rats_frame_counter_10000_262:
    00000078                         32 	.ds 1
    00000079                         33 _update_rats_single_rat_timer_10000_262:
    00000079                         34 	.ds 2
                                     35 ;--------------------------------------------------------
                                     36 ; ram data
                                     37 ;--------------------------------------------------------
                                     38 	.area _INITIALIZED
    00000000                         39 _game_over_flag::
    00000000                         40 	.ds 1
    00000001                         41 _victory_flag::
    00000001                         42 	.ds 1
                                     43 ;--------------------------------------------------------
                                     44 ; absolute external ram data
                                     45 ;--------------------------------------------------------
                                     46 	.area _DABS (ABS)
                                     47 ;--------------------------------------------------------
                                     48 ; global & static initialisations
                                     49 ;--------------------------------------------------------
                                     50 	.area _HOME
                                     51 	.area _GSINIT
                                     52 	.area _GSFINAL
                                     53 	.area _GSINIT
                                     54 ;src/rat.c:148: static uint8_t frame_counter = 0;
                                     55 ;src/rat.c:149: static uint16_t single_rat_timer = 0;
    00000000 AF               [ 4]   56 	xor	a, a
    00000001 EAr78r00         [16]   57 	ld	(#_update_rats_frame_counter_10000_262), a
    00000004 21r79r00         [12]   58 	ld	hl, #_update_rats_single_rat_timer_10000_262
    00000007 22               [ 8]   59 	ld	(hl+), a
    00000008 77               [ 8]   60 	ld	(hl), a
                                     61 ;--------------------------------------------------------
                                     62 ; Home
                                     63 ;--------------------------------------------------------
                                     64 	.area _HOME
                                     65 	.area _HOME
                                     66 ;--------------------------------------------------------
                                     67 ; code
                                     68 ;--------------------------------------------------------
                                     69 	.area _CODE
                                     70 ;src/rat.c:38: static uint8_t get_opposite(uint8_t dir) {
                                     71 ;	---------------------------------
                                     72 ; Function get_opposite
                                     73 ; ---------------------------------
    00000000                         74 _get_opposite:
                                     75 ;src/rat.c:39: if (dir == 0) return 1;
    00000000 B7               [ 4]   76 	or	a, a
    00000001 20 03            [12]   77 	jr	NZ, 00102$
    00000003 3E 01            [ 8]   78 	ld	a, #0x01
    00000005 C9               [16]   79 	ret
    00000006                         80 00102$:
                                     81 ;src/rat.c:40: if (dir == 1) return 0;
    00000006 FE 01            [ 8]   82 	cp	a, #0x01
    00000008 20 02            [12]   83 	jr	NZ, 00104$
    0000000A AF               [ 4]   84 	xor	a, a
    0000000B C9               [16]   85 	ret
    0000000C                         86 00104$:
                                     87 ;src/rat.c:41: if (dir == 2) return 3;
    0000000C FE 02            [ 8]   88 	cp	a, #0x02
    0000000E 20 03            [12]   89 	jr	NZ, 00106$
    00000010 3E 03            [ 8]   90 	ld	a, #0x03
    00000012 C9               [16]   91 	ret
    00000013                         92 00106$:
                                     93 ;src/rat.c:42: if (dir == 3) return 2;
    00000013 D6 03            [ 8]   94 	sub	a, #0x03
                                     95 ;src/rat.c:43: return 255;
    00000015 3E 02            [ 8]   96 	ld	a, #0x02
    00000017 C8               [20]   97 	ret	Z
    00000018 3E FF            [ 8]   98 	ld	a, #0xff
                                     99 ;src/rat.c:44: }
    0000001A C9               [16]  100 	ret
    0000001B                        101 _RatSpriteData:
    0000001B 00                     102 	.db #0x00	; 0
    0000001C 00                     103 	.db #0x00	; 0
    0000001D 07                     104 	.db #0x07	; 7
    0000001E 07                     105 	.db #0x07	; 7
    0000001F 3F                     106 	.db #0x3f	; 63
    00000020 38                     107 	.db #0x38	; 56	'8'
    00000021 5E                     108 	.db #0x5e	; 94
    00000022 71                     109 	.db #0x71	; 113	'q'
    00000023 5B                     110 	.db #0x5b	; 91
    00000024 74                     111 	.db #0x74	; 116	't'
    00000025 3F                     112 	.db #0x3f	; 63
    00000026 38                     113 	.db #0x38	; 56	'8'
    00000027 07                     114 	.db #0x07	; 7
    00000028 07                     115 	.db #0x07	; 7
    00000029 00                     116 	.db #0x00	; 0
    0000002A 00                     117 	.db #0x00	; 0
    0000002B 00                     118 	.db #0x00	; 0
    0000002C 00                     119 	.db #0x00	; 0
    0000002D F0                     120 	.db #0xf0	; 240
    0000002E F0                     121 	.db #0xf0	; 240
    0000002F C8                     122 	.db #0xc8	; 200
    00000030 08                     123 	.db #0x08	; 8
    00000031 D4                     124 	.db #0xd4	; 212
    00000032 1C                     125 	.db #0x1c	; 28
    00000033 D4                     126 	.db #0xd4	; 212
    00000034 1C                     127 	.db #0x1c	; 28
    00000035 C8                     128 	.db #0xc8	; 200
    00000036 08                     129 	.db #0x08	; 8
    00000037 F0                     130 	.db #0xf0	; 240
    00000038 F0                     131 	.db #0xf0	; 240
    00000039 00                     132 	.db #0x00	; 0
    0000003A 00                     133 	.db #0x00	; 0
    0000003B 00                     134 	.db #0x00	; 0
    0000003C 00                     135 	.db #0x00	; 0
    0000003D 18                     136 	.db #0x18	; 24
    0000003E 18                     137 	.db #0x18	; 24
    0000003F 24                     138 	.db #0x24	; 36
    00000040 3C                     139 	.db #0x3c	; 60
    00000041 3C                     140 	.db #0x3c	; 60
    00000042 3C                     141 	.db #0x3c	; 60
    00000043 3C                     142 	.db #0x3c	; 60
    00000044 24                     143 	.db #0x24	; 36
    00000045 6E                     144 	.db #0x6e	; 110	'n'
    00000046 52                     145 	.db #0x52	; 82	'R'
    00000047 7E                     146 	.db #0x7e	; 126
    00000048 42                     147 	.db #0x42	; 66	'B'
    00000049 76                     148 	.db #0x76	; 118	'v'
    0000004A 4A                     149 	.db #0x4a	; 74	'J'
    0000004B 7E                     150 	.db #0x7e	; 126
    0000004C 42                     151 	.db #0x42	; 66	'B'
    0000004D 7E                     152 	.db #0x7e	; 126
    0000004E 42                     153 	.db #0x42	; 66	'B'
    0000004F 42                     154 	.db #0x42	; 66	'B'
    00000050 42                     155 	.db #0x42	; 66	'B'
    00000051 5A                     156 	.db #0x5a	; 90	'Z'
    00000052 5A                     157 	.db #0x5a	; 90	'Z'
    00000053 24                     158 	.db #0x24	; 36
    00000054 3C                     159 	.db #0x3c	; 60
    00000055 18                     160 	.db #0x18	; 24
    00000056 18                     161 	.db #0x18	; 24
    00000057 00                     162 	.db #0x00	; 0
    00000058 00                     163 	.db #0x00	; 0
    00000059 00                     164 	.db #0x00	; 0
    0000005A 00                     165 	.db #0x00	; 0
                                    166 ;src/rat.c:46: void init_rats(void) {
                                    167 ;	---------------------------------
                                    168 ; Function init_rats
                                    169 ; ---------------------------------
    0000005B                        170 _init_rats::
    0000005B E8 ED            [16]  171 	add	sp, #-19
                                    172 ;src/rat.c:48: set_sprite_data(0, 4, RatSpriteData);
    0000005D 11r1Br00         [12]  173 	ld	de, #_RatSpriteData
    00000060 D5               [16]  174 	push	de
    00000061 21 00 04         [12]  175 	ld	hl, #0x400
    00000064 E5               [16]  176 	push	hl
    00000065 CDr00r00         [24]  177 	call	_set_sprite_data
    00000068 E8 04            [16]  178 	add	sp, #4
                                    179 ;src/rat.c:49: OBP0_REG = 0xE4; // Palette standard
    0000006A 3E E4            [ 8]  180 	ld	a, #0xe4
    0000006C E0r00            [12]  181 	ldh	(_OBP0_REG + 0), a
                                    182 ;src/rat.c:52: uint8_t start_pos[4][2] = {
    0000006E F8 00            [12]  183 	ldhl	sp,	#0
    00000070 3E 01            [ 8]  184 	ld	a,#0x01
    00000072 22               [ 8]  185 	ld	(hl+),a
    00000073 22               [ 8]  186 	ld	(hl+), a
    00000074 3E 11            [ 8]  187 	ld	a, #0x11
    00000076 22               [ 8]  188 	ld	(hl+), a
    00000077 3E 0F            [ 8]  189 	ld	a, #0x0f
    00000079 22               [ 8]  190 	ld	(hl+), a
    0000007A 3E 11            [ 8]  191 	ld	a, #0x11
    0000007C 22               [ 8]  192 	ld	(hl+), a
    0000007D 3E 01            [ 8]  193 	ld	a,#0x01
    0000007F 22               [ 8]  194 	ld	(hl+),a
    00000080 22               [ 8]  195 	ld	(hl+), a
    00000081 36 0F            [12]  196 	ld	(hl), #0x0f
                                    197 ;src/rat.c:59: for (uint8_t i = 0; i < MAX_RATS; i++) {
    00000083 F8 12            [12]  198 	ldhl	sp,	#18
    00000085 36 00            [12]  199 	ld	(hl), #0x00
    00000087                        200 00106$:
    00000087 F8 12            [12]  201 	ldhl	sp,	#18
    00000089 7E               [ 8]  202 	ld	a, (hl)
    0000008A D6 0A            [ 8]  203 	sub	a, #0x0a
    0000008C 30 74            [12]  204 	jr	NC, 00101$
                                    205 ;src/rat.c:60: rats[i].active = 0;
    0000008E 4E               [ 8]  206 	ld	c, (hl)
    0000008F 06 00            [ 8]  207 	ld	b, #0x00
    00000091 69               [ 4]  208 	ld	l, c
    00000092 60               [ 4]  209 	ld	h, b
    00000093 29               [ 8]  210 	add	hl, hl
    00000094 09               [ 8]  211 	add	hl, bc
    00000095 29               [ 8]  212 	add	hl, hl
    00000096 29               [ 8]  213 	add	hl, hl
    00000097 01r00r00         [12]  214 	ld	bc, #_rats
    0000009A 09               [ 8]  215 	add	hl, bc
    0000009B E5               [16]  216 	push	hl
    0000009C 7D               [ 4]  217 	ld	a, l
    0000009D F8 12            [12]  218 	ldhl	sp,	#18
    0000009F 77               [ 8]  219 	ld	(hl), a
    000000A0 E1               [12]  220 	pop	hl
    000000A1 7C               [ 4]  221 	ld	a, h
    000000A2 F8 11            [12]  222 	ldhl	sp,	#17
    000000A4 32               [ 8]  223 	ld	(hl-), a
    000000A5 2A               [ 8]  224 	ld	a, (hl+)
    000000A6 66               [ 8]  225 	ld	h, (hl)
    000000A7 6F               [ 4]  226 	ld	l, a
    000000A8 36 00            [12]  227 	ld	(hl), #0x00
                                    228 ;src/rat.c:61: rats[i].reproduce_timer = 0;
    000000AA F8 10            [12]  229 	ldhl	sp,#16
    000000AC 2A               [ 8]  230 	ld	a, (hl+)
    000000AD 5F               [ 4]  231 	ld	e, a
    000000AE 56               [ 8]  232 	ld	d, (hl)
    000000AF 21 09 00         [12]  233 	ld	hl, #0x0009
    000000B2 19               [ 8]  234 	add	hl, de
    000000B3 4D               [ 4]  235 	ld	c, l
    000000B4 44               [ 4]  236 	ld	b, h
    000000B5 AF               [ 4]  237 	xor	a, a
    000000B6 02               [ 8]  238 	ld	(bc), a
                                    239 ;src/rat.c:62: rats[i].cooldown_timer = 0;
    000000B7 F8 10            [12]  240 	ldhl	sp,#16
    000000B9 2A               [ 8]  241 	ld	a, (hl+)
    000000BA 5F               [ 4]  242 	ld	e, a
    000000BB 56               [ 8]  243 	ld	d, (hl)
    000000BC 21 0A 00         [12]  244 	ld	hl, #0x000a
    000000BF 19               [ 8]  245 	add	hl, de
    000000C0 4D               [ 4]  246 	ld	c, l
    000000C1 44               [ 4]  247 	ld	b, h
    000000C2 AF               [ 4]  248 	xor	a, a
    000000C3 02               [ 8]  249 	ld	(bc), a
                                    250 ;src/rat.c:63: rats[i].is_mother = 0;
    000000C4 F8 10            [12]  251 	ldhl	sp,#16
    000000C6 2A               [ 8]  252 	ld	a, (hl+)
    000000C7 5F               [ 4]  253 	ld	e, a
    000000C8 56               [ 8]  254 	ld	d, (hl)
    000000C9 21 0B 00         [12]  255 	ld	hl, #0x000b
    000000CC 19               [ 8]  256 	add	hl, de
    000000CD 4D               [ 4]  257 	ld	c, l
    000000CE 44               [ 4]  258 	ld	b, h
    000000CF AF               [ 4]  259 	xor	a, a
    000000D0 02               [ 8]  260 	ld	(bc), a
                                    261 ;src/rat.c:64: rats[i].sprite_base_idx = i * 2;
    000000D1 F8 10            [12]  262 	ldhl	sp,#16
    000000D3 2A               [ 8]  263 	ld	a, (hl+)
    000000D4 5F               [ 4]  264 	ld	e, a
    000000D5 56               [ 8]  265 	ld	d, (hl)
    000000D6 21 08 00         [12]  266 	ld	hl, #0x0008
    000000D9 19               [ 8]  267 	add	hl, de
    000000DA 4D               [ 4]  268 	ld	c, l
    000000DB 44               [ 4]  269 	ld	b, h
    000000DC F8 12            [12]  270 	ldhl	sp,	#18
    000000DE 7E               [ 8]  271 	ld	a, (hl)
    000000DF 87               [ 4]  272 	add	a, a
    000000E0 02               [ 8]  273 	ld	(bc), a
                                    274 ;src/rat.c:66: move_sprite(rats[i].sprite_base_idx, 0, 0);
    000000E1 5F               [ 4]  275 	ld	e, a
                                    276 ;/home/enne2/.local/gbdk/include/gb/gb.h:1973: OAM_item_t * itm = &shadow_OAM[nb];
    000000E2 AF               [ 4]  277 	xor	a, a
    000000E3 6B               [ 4]  278 	ld	l, e
    000000E4 67               [ 4]  279 	ld	h, a
    000000E5 29               [ 8]  280 	add	hl, hl
    000000E6 29               [ 8]  281 	add	hl, hl
    000000E7 11r00r00         [12]  282 	ld	de, #_shadow_OAM
    000000EA 19               [ 8]  283 	add	hl, de
                                    284 ;/home/enne2/.local/gbdk/include/gb/gb.h:1974: itm->y=y, itm->x=x;
    000000EB AF               [ 4]  285 	xor	a, a
    000000EC 22               [ 8]  286 	ld	(hl+), a
    000000ED 77               [ 8]  287 	ld	(hl), a
                                    288 ;src/rat.c:67: move_sprite(rats[i].sprite_base_idx + 1, 0, 0);
    000000EE 0A               [ 8]  289 	ld	a, (bc)
    000000EF 5F               [ 4]  290 	ld	e, a
    000000F0 1C               [ 4]  291 	inc	e
                                    292 ;/home/enne2/.local/gbdk/include/gb/gb.h:1973: OAM_item_t * itm = &shadow_OAM[nb];
    000000F1 01r00r00         [12]  293 	ld	bc, #_shadow_OAM+0
    000000F4 AF               [ 4]  294 	xor	a, a
    000000F5 6B               [ 4]  295 	ld	l, e
    000000F6 67               [ 4]  296 	ld	h, a
    000000F7 29               [ 8]  297 	add	hl, hl
    000000F8 29               [ 8]  298 	add	hl, hl
    000000F9 09               [ 8]  299 	add	hl, bc
                                    300 ;/home/enne2/.local/gbdk/include/gb/gb.h:1974: itm->y=y, itm->x=x;
    000000FA AF               [ 4]  301 	xor	a, a
    000000FB 22               [ 8]  302 	ld	(hl+), a
    000000FC 77               [ 8]  303 	ld	(hl), a
                                    304 ;src/rat.c:59: for (uint8_t i = 0; i < MAX_RATS; i++) {
    000000FD F8 12            [12]  305 	ldhl	sp,	#18
    000000FF 34               [12]  306 	inc	(hl)
    00000100 18 85            [12]  307 	jr	00106$
    00000102                        308 00101$:
                                    309 ;src/rat.c:71: for (uint8_t i = 0; i < 4; i++) {
    00000102 F8 12            [12]  310 	ldhl	sp,	#18
    00000104 36 00            [12]  311 	ld	(hl), #0x00
    00000106                        312 00109$:
    00000106 F8 12            [12]  313 	ldhl	sp,	#18
    00000108 7E               [ 8]  314 	ld	a, (hl)
    00000109 D6 04            [ 8]  315 	sub	a, #0x04
    0000010B D2rDDr01         [16]  316 	jp	NC, 00111$
                                    317 ;src/rat.c:72: rats[i].active = 1;
    0000010E 4E               [ 8]  318 	ld	c, (hl)
    0000010F 06 00            [ 8]  319 	ld	b, #0x00
    00000111 69               [ 4]  320 	ld	l, c
    00000112 60               [ 4]  321 	ld	h, b
    00000113 29               [ 8]  322 	add	hl, hl
    00000114 09               [ 8]  323 	add	hl, bc
    00000115 29               [ 8]  324 	add	hl, hl
    00000116 29               [ 8]  325 	add	hl, hl
    00000117 01r00r00         [12]  326 	ld	bc, #_rats
    0000011A 09               [ 8]  327 	add	hl, bc
    0000011B E5               [16]  328 	push	hl
    0000011C 7D               [ 4]  329 	ld	a, l
    0000011D F8 0A            [12]  330 	ldhl	sp,	#10
    0000011F 77               [ 8]  331 	ld	(hl), a
    00000120 E1               [12]  332 	pop	hl
    00000121 7C               [ 4]  333 	ld	a, h
    00000122 F8 09            [12]  334 	ldhl	sp,	#9
    00000124 32               [ 8]  335 	ld	(hl-), a
    00000125 2A               [ 8]  336 	ld	a, (hl+)
    00000126 66               [ 8]  337 	ld	h, (hl)
    00000127 6F               [ 4]  338 	ld	l, a
    00000128 36 01            [12]  339 	ld	(hl), #0x01
                                    340 ;src/rat.c:73: rats[i].rat_x = start_pos[i][0];
    0000012A F8 08            [12]  341 	ldhl	sp,#8
    0000012C 2A               [ 8]  342 	ld	a, (hl+)
    0000012D 5F               [ 4]  343 	ld	e, a
    0000012E 56               [ 8]  344 	ld	d, (hl)
    0000012F 6B               [ 4]  345 	ld	l, e
    00000130 62               [ 4]  346 	ld	h, d
    00000131 23               [ 8]  347 	inc	hl
    00000132 E5               [16]  348 	push	hl
    00000133 7D               [ 4]  349 	ld	a, l
    00000134 F8 0C            [12]  350 	ldhl	sp,	#12
    00000136 77               [ 8]  351 	ld	(hl), a
    00000137 E1               [12]  352 	pop	hl
    00000138 7C               [ 4]  353 	ld	a, h
    00000139 F8 0B            [12]  354 	ldhl	sp,	#11
    0000013B 77               [ 8]  355 	ld	(hl), a
    0000013C F8 12            [12]  356 	ldhl	sp,	#18
    0000013E 4E               [ 8]  357 	ld	c, (hl)
    0000013F AF               [ 4]  358 	xor	a, a
    00000140 47               [ 4]  359 	ld	b, a
    00000141 CB 21            [ 8]  360 	sla	c
    00000143 CB 10            [ 8]  361 	rl	b
    00000145 21 00 00         [12]  362 	ld	hl, #0
    00000148 39               [ 8]  363 	add	hl, sp
    00000149 09               [ 8]  364 	add	hl, bc
    0000014A 4D               [ 4]  365 	ld	c, l
    0000014B 44               [ 4]  366 	ld	b, h
    0000014C F8 0C            [12]  367 	ldhl	sp,	#12
    0000014E 79               [ 4]  368 	ld	a, c
    0000014F 22               [ 8]  369 	ld	(hl+), a
    00000150 78               [ 4]  370 	ld	a, b
    00000151 32               [ 8]  371 	ld	(hl-), a
    00000152 2A               [ 8]  372 	ld	a, (hl+)
    00000153 5F               [ 4]  373 	ld	e, a
    00000154 56               [ 8]  374 	ld	d, (hl)
    00000155 1A               [ 8]  375 	ld	a, (de)
    00000156 F8 0A            [12]  376 	ldhl	sp,	#10
    00000158 5E               [ 8]  377 	ld	e, (hl)
    00000159 23               [ 8]  378 	inc	hl
    0000015A 66               [ 8]  379 	ld	h, (hl)
    0000015B 6B               [ 4]  380 	ld	l, e
    0000015C 77               [ 8]  381 	ld	(hl), a
                                    382 ;src/rat.c:74: rats[i].rat_y = start_pos[i][1];
    0000015D F8 08            [12]  383 	ldhl	sp,#8
    0000015F 2A               [ 8]  384 	ld	a, (hl+)
    00000160 5F               [ 4]  385 	ld	e, a
    00000161 56               [ 8]  386 	ld	d, (hl)
    00000162 21 02 00         [12]  387 	ld	hl, #0x0002
    00000165 19               [ 8]  388 	add	hl, de
    00000166 E5               [16]  389 	push	hl
    00000167 7D               [ 4]  390 	ld	a, l
    00000168 F8 10            [12]  391 	ldhl	sp,	#16
    0000016A 77               [ 8]  392 	ld	(hl), a
    0000016B E1               [12]  393 	pop	hl
    0000016C 7C               [ 4]  394 	ld	a, h
    0000016D F8 0F            [12]  395 	ldhl	sp,	#15
    0000016F 22               [ 8]  396 	ld	(hl+), a
    00000170 03               [ 8]  397 	inc	bc
    00000171 79               [ 4]  398 	ld	a, c
    00000172 22               [ 8]  399 	ld	(hl+), a
    00000173 78               [ 4]  400 	ld	a, b
    00000174 32               [ 8]  401 	ld	(hl-), a
    00000175 2A               [ 8]  402 	ld	a, (hl+)
    00000176 5F               [ 4]  403 	ld	e, a
    00000177 56               [ 8]  404 	ld	d, (hl)
    00000178 1A               [ 8]  405 	ld	a, (de)
    00000179 F8 0E            [12]  406 	ldhl	sp,	#14
    0000017B 5E               [ 8]  407 	ld	e, (hl)
    0000017C 23               [ 8]  408 	inc	hl
    0000017D 66               [ 8]  409 	ld	h, (hl)
    0000017E 6B               [ 4]  410 	ld	l, e
    0000017F 77               [ 8]  411 	ld	(hl), a
                                    412 ;src/rat.c:75: rats[i].target_x = start_pos[i][0];
    00000180 F8 08            [12]  413 	ldhl	sp,	#8
    00000182 2A               [ 8]  414 	ld	a, (hl+)
    00000183 4F               [ 4]  415 	ld	c, a
    00000184 46               [ 8]  416 	ld	b, (hl)
    00000185 03               [ 8]  417 	inc	bc
    00000186 03               [ 8]  418 	inc	bc
    00000187 03               [ 8]  419 	inc	bc
    00000188 F8 0C            [12]  420 	ldhl	sp,#12
    0000018A 2A               [ 8]  421 	ld	a, (hl+)
    0000018B 5F               [ 4]  422 	ld	e, a
    0000018C 56               [ 8]  423 	ld	d, (hl)
    0000018D 1A               [ 8]  424 	ld	a, (de)
    0000018E 02               [ 8]  425 	ld	(bc), a
                                    426 ;src/rat.c:76: rats[i].target_y = start_pos[i][1];
    0000018F F8 08            [12]  427 	ldhl	sp,#8
    00000191 2A               [ 8]  428 	ld	a, (hl+)
    00000192 5F               [ 4]  429 	ld	e, a
    00000193 56               [ 8]  430 	ld	d, (hl)
    00000194 21 04 00         [12]  431 	ld	hl, #0x0004
    00000197 19               [ 8]  432 	add	hl, de
    00000198 4D               [ 4]  433 	ld	c, l
    00000199 44               [ 4]  434 	ld	b, h
    0000019A F8 10            [12]  435 	ldhl	sp,#16
    0000019C 2A               [ 8]  436 	ld	a, (hl+)
    0000019D 5F               [ 4]  437 	ld	e, a
    0000019E 56               [ 8]  438 	ld	d, (hl)
    0000019F 1A               [ 8]  439 	ld	a, (de)
    000001A0 02               [ 8]  440 	ld	(bc), a
                                    441 ;src/rat.c:77: rats[i].pixel_x = rats[i].rat_x * 8;
    000001A1 F8 08            [12]  442 	ldhl	sp,#8
    000001A3 2A               [ 8]  443 	ld	a, (hl+)
    000001A4 5F               [ 4]  444 	ld	e, a
    000001A5 56               [ 8]  445 	ld	d, (hl)
    000001A6 21 05 00         [12]  446 	ld	hl, #0x0005
    000001A9 19               [ 8]  447 	add	hl, de
    000001AA 4D               [ 4]  448 	ld	c, l
    000001AB 44               [ 4]  449 	ld	b, h
    000001AC F8 0A            [12]  450 	ldhl	sp,#10
    000001AE 2A               [ 8]  451 	ld	a, (hl+)
    000001AF 5F               [ 4]  452 	ld	e, a
                                    453 ;src/rat.c:78: rats[i].pixel_y = rats[i].rat_y * 8;
    000001B0 3A               [ 8]  454 	ld	a, (hl-)
    000001B1 2B               [ 8]  455 	dec	hl
    000001B2 2B               [ 8]  456 	dec	hl
    000001B3 57               [ 4]  457 	ld	d, a
    000001B4 1A               [ 8]  458 	ld	a, (de)
    000001B5 87               [ 4]  459 	add	a, a
    000001B6 87               [ 4]  460 	add	a, a
    000001B7 87               [ 4]  461 	add	a, a
    000001B8 02               [ 8]  462 	ld	(bc), a
    000001B9 2A               [ 8]  463 	ld	a, (hl+)
    000001BA 5F               [ 4]  464 	ld	e, a
    000001BB 56               [ 8]  465 	ld	d, (hl)
    000001BC 21 06 00         [12]  466 	ld	hl, #0x0006
    000001BF 19               [ 8]  467 	add	hl, de
    000001C0 4D               [ 4]  468 	ld	c, l
    000001C1 44               [ 4]  469 	ld	b, h
    000001C2 F8 0E            [12]  470 	ldhl	sp,#14
    000001C4 2A               [ 8]  471 	ld	a, (hl+)
    000001C5 5F               [ 4]  472 	ld	e, a
    000001C6 56               [ 8]  473 	ld	d, (hl)
    000001C7 1A               [ 8]  474 	ld	a, (de)
    000001C8 87               [ 4]  475 	add	a, a
    000001C9 87               [ 4]  476 	add	a, a
    000001CA 87               [ 4]  477 	add	a, a
    000001CB 02               [ 8]  478 	ld	(bc), a
                                    479 ;src/rat.c:79: rats[i].current_dir = 255;
    000001CC F8 08            [12]  480 	ldhl	sp,#8
    000001CE 2A               [ 8]  481 	ld	a, (hl+)
    000001CF 5F               [ 4]  482 	ld	e, a
    000001D0 56               [ 8]  483 	ld	d, (hl)
    000001D1 21 07 00         [12]  484 	ld	hl, #0x0007
    000001D4 19               [ 8]  485 	add	hl, de
    000001D5 36 FF            [12]  486 	ld	(hl), #0xff
                                    487 ;src/rat.c:71: for (uint8_t i = 0; i < 4; i++) {
    000001D7 F8 12            [12]  488 	ldhl	sp,	#18
    000001D9 34               [12]  489 	inc	(hl)
    000001DA C3r06r01         [16]  490 	jp	00109$
    000001DD                        491 00111$:
                                    492 ;src/rat.c:81: }
    000001DD E8 13            [16]  493 	add	sp, #19
    000001DF C9               [16]  494 	ret
                                    495 ;src/rat.c:83: void spawn_rat(uint8_t x, uint8_t y, uint8_t initial_dir) {
                                    496 ;	---------------------------------
                                    497 ; Function spawn_rat
                                    498 ; ---------------------------------
    000001E0                        499 _spawn_rat::
    000001E0 E8 F3            [16]  500 	add	sp, #-13
    000001E2 F8 0C            [12]  501 	ldhl	sp,	#12
    000001E4 32               [ 8]  502 	ld	(hl-), a
    000001E5 73               [ 8]  503 	ld	(hl), e
                                    504 ;src/rat.c:84: for (uint8_t i = 0; i < MAX_RATS; i++) {
    000001E6 F8 08            [12]  505 	ldhl	sp,	#8
    000001E8 AF               [ 4]  506 	xor	a, a
    000001E9 22               [ 8]  507 	ld	(hl+), a
    000001EA 23               [ 8]  508 	inc	hl
    000001EB 36 00            [12]  509 	ld	(hl), #0x00
    000001ED                        510 00169$:
    000001ED F8 0A            [12]  511 	ldhl	sp,	#10
    000001EF 7E               [ 8]  512 	ld	a, (hl)
    000001F0 D6 0A            [ 8]  513 	sub	a, #0x0a
    000001F2 D2rCAr06         [16]  514 	jp	NC, 00171$
                                    515 ;src/rat.c:85: if (!rats[i].active) {
    000001F5 4E               [ 8]  516 	ld	c, (hl)
    000001F6 06 00            [ 8]  517 	ld	b, #0x00
    000001F8 69               [ 4]  518 	ld	l, c
    000001F9 60               [ 4]  519 	ld	h, b
    000001FA 29               [ 8]  520 	add	hl, hl
    000001FB 09               [ 8]  521 	add	hl, bc
    000001FC 29               [ 8]  522 	add	hl, hl
    000001FD 29               [ 8]  523 	add	hl, hl
    000001FE 7D               [ 4]  524 	ld	a, l
    000001FF C6r00            [ 8]  525 	add	a, #<(_rats)
    00000201 4F               [ 4]  526 	ld	c, a
    00000202 7C               [ 4]  527 	ld	a, h
    00000203 CEs00            [ 8]  528 	adc	a, #>(_rats)
    00000205 47               [ 4]  529 	ld	b, a
    00000206 69               [ 4]  530 	ld	l, c
    00000207 60               [ 4]  531 	ld	h, b
    00000208 7E               [ 8]  532 	ld	a, (hl)
    00000209 B7               [ 4]  533 	or	a, a
    0000020A C2rC1r06         [16]  534 	jp	NZ, 00170$
                                    535 ;src/rat.c:86: rats[i].active = 1;
    0000020D 36 01            [12]  536 	ld	(hl), #0x01
                                    537 ;src/rat.c:87: rats[i].rat_x = x;
    0000020F 59               [ 4]  538 	ld	e, c
    00000210 50               [ 4]  539 	ld	d, b
    00000211 13               [ 8]  540 	inc	de
    00000212 F8 0C            [12]  541 	ldhl	sp,	#12
                                    542 ;src/rat.c:88: rats[i].rat_y = y;
    00000214 3A               [ 8]  543 	ld	a, (hl-)
    00000215 12               [ 8]  544 	ld	(de), a
    00000216 59               [ 4]  545 	ld	e, c
    00000217 50               [ 4]  546 	ld	d, b
    00000218 13               [ 8]  547 	inc	de
    00000219 13               [ 8]  548 	inc	de
    0000021A 7E               [ 8]  549 	ld	a, (hl)
    0000021B 12               [ 8]  550 	ld	(de), a
                                    551 ;src/rat.c:91: rats[i].current_dir = initial_dir;
    0000021C 21 07 00         [12]  552 	ld	hl, #0x0007
    0000021F 09               [ 8]  553 	add	hl, bc
    00000220 5D               [ 4]  554 	ld	e, l
    00000221 54               [ 4]  555 	ld	d, h
    00000222 F8 0F            [12]  556 	ldhl	sp,	#15
    00000224 7E               [ 8]  557 	ld	a, (hl)
    00000225 12               [ 8]  558 	ld	(de), a
                                    559 ;src/rat.c:92: rats[i].target_x = x;
    00000226 59               [ 4]  560 	ld	e, c
    00000227 50               [ 4]  561 	ld	d, b
    00000228 13               [ 8]  562 	inc	de
    00000229 13               [ 8]  563 	inc	de
    0000022A 13               [ 8]  564 	inc	de
    0000022B F8 0C            [12]  565 	ldhl	sp,	#12
                                    566 ;src/rat.c:93: rats[i].target_y = y;
    0000022D 3A               [ 8]  567 	ld	a, (hl-)
    0000022E 12               [ 8]  568 	ld	(de), a
    0000022F 03               [ 8]  569 	inc	bc
    00000230 03               [ 8]  570 	inc	bc
    00000231 03               [ 8]  571 	inc	bc
    00000232 03               [ 8]  572 	inc	bc
    00000233 7E               [ 8]  573 	ld	a, (hl)
    00000234 02               [ 8]  574 	ld	(bc), a
                                    575 ;src/rat.c:94: if (initial_dir == 0 && y < MAZE_HEIGHT - 1 && maze[y+1][x] == 0) rats[i].target_y++;
    00000235 3A               [ 8]  576 	ld	a, (hl-)
    00000236 2B               [ 8]  577 	dec	hl
    00000237 22               [ 8]  578 	ld	(hl+), a
                                    579 ;src/rat.c:95: else if (initial_dir == 1 && y > 0 && maze[y-1][x] == 0) rats[i].target_y--;
    00000238 AF               [ 4]  580 	xor	a, a
    00000239 32               [ 8]  581 	ld	(hl-), a
    0000023A 2B               [ 8]  582 	dec	hl
    0000023B 5E               [ 8]  583 	ld	e, (hl)
    0000023C 16 00            [ 8]  584 	ld	d, #0x00
    0000023E 6B               [ 4]  585 	ld	l, e
    0000023F 62               [ 4]  586 	ld	h, d
    00000240 29               [ 8]  587 	add	hl, hl
    00000241 19               [ 8]  588 	add	hl, de
    00000242 29               [ 8]  589 	add	hl, hl
    00000243 29               [ 8]  590 	add	hl, hl
    00000244 E5               [16]  591 	push	hl
    00000245 7D               [ 4]  592 	ld	a, l
    00000246 F8 09            [12]  593 	ldhl	sp,	#9
    00000248 77               [ 8]  594 	ld	(hl), a
    00000249 E1               [12]  595 	pop	hl
    0000024A 7C               [ 4]  596 	ld	a, h
    0000024B F8 08            [12]  597 	ldhl	sp,	#8
    0000024D 32               [ 8]  598 	ld	(hl-), a
    0000024E 2A               [ 8]  599 	ld	a, (hl+)
    0000024F 5F               [ 4]  600 	ld	e, a
    00000250 56               [ 8]  601 	ld	d, (hl)
    00000251 21r00r00         [12]  602 	ld	hl, #_rats
    00000254 19               [ 8]  603 	add	hl, de
    00000255 E5               [16]  604 	push	hl
    00000256 7D               [ 4]  605 	ld	a, l
    00000257 F8 04            [12]  606 	ldhl	sp,	#4
    00000259 77               [ 8]  607 	ld	(hl), a
    0000025A E1               [12]  608 	pop	hl
    0000025B 7C               [ 4]  609 	ld	a, h
    0000025C F8 03            [12]  610 	ldhl	sp,	#3
                                    611 ;src/rat.c:98: else rats[i].current_dir = 255; // Nessuna direzione valida trovata
    0000025E 32               [ 8]  612 	ld	(hl-), a
    0000025F 2A               [ 8]  613 	ld	a, (hl+)
    00000260 5F               [ 4]  614 	ld	e, a
    00000261 56               [ 8]  615 	ld	d, (hl)
    00000262 21 07 00         [12]  616 	ld	hl, #0x0007
    00000265 19               [ 8]  617 	add	hl, de
    00000266 E5               [16]  618 	push	hl
    00000267 7D               [ 4]  619 	ld	a, l
    00000268 F8 06            [12]  620 	ldhl	sp,	#6
    0000026A 77               [ 8]  621 	ld	(hl), a
    0000026B E1               [12]  622 	pop	hl
    0000026C 7C               [ 4]  623 	ld	a, h
    0000026D F8 05            [12]  624 	ldhl	sp,	#5
    0000026F 77               [ 8]  625 	ld	(hl), a
                                    626 ;src/rat.c:94: if (initial_dir == 0 && y < MAZE_HEIGHT - 1 && maze[y+1][x] == 0) rats[i].target_y++;
    00000270 F8 0F            [12]  627 	ldhl	sp,	#15
    00000272 7E               [ 8]  628 	ld	a, (hl)
    00000273 B7               [ 4]  629 	or	a, a
    00000274 20 2B            [12]  630 	jr	NZ, 00117$
    00000276 F8 0B            [12]  631 	ldhl	sp,	#11
    00000278 7E               [ 8]  632 	ld	a, (hl)
    00000279 D6 10            [ 8]  633 	sub	a, #0x10
    0000027B 30 24            [12]  634 	jr	NC, 00117$
    0000027D 2B               [ 8]  635 	dec	hl
    0000027E 2B               [ 8]  636 	dec	hl
    0000027F 11r00r00         [12]  637 	ld	de, #_maze+0
    00000282 7E               [ 8]  638 	ld	a, (hl)
    00000283 26 00            [ 8]  639 	ld	h, #0x00
    00000285 6F               [ 4]  640 	ld	l, a
    00000286 23               [ 8]  641 	inc	hl
    00000287 29               [ 8]  642 	add	hl, hl
    00000288 29               [ 8]  643 	add	hl, hl
    00000289 29               [ 8]  644 	add	hl, hl
    0000028A 29               [ 8]  645 	add	hl, hl
    0000028B 29               [ 8]  646 	add	hl, hl
    0000028C 19               [ 8]  647 	add	hl, de
    0000028D 5D               [ 4]  648 	ld	e, l
    0000028E 54               [ 4]  649 	ld	d, h
    0000028F F8 0C            [12]  650 	ldhl	sp,	#12
    00000291 6E               [ 8]  651 	ld	l, (hl)
    00000292 26 00            [ 8]  652 	ld	h, #0x00
    00000294 19               [ 8]  653 	add	hl, de
    00000295 5D               [ 4]  654 	ld	e, l
    00000296 54               [ 4]  655 	ld	d, h
    00000297 1A               [ 8]  656 	ld	a, (de)
    00000298 B7               [ 4]  657 	or	a, a
    00000299 20 06            [12]  658 	jr	NZ, 00117$
    0000029B 0A               [ 8]  659 	ld	a, (bc)
    0000029C 3C               [ 4]  660 	inc	a
    0000029D 02               [ 8]  661 	ld	(bc), a
    0000029E C3r51r03         [16]  662 	jp	00118$
    000002A1                        663 00117$:
                                    664 ;src/rat.c:95: else if (initial_dir == 1 && y > 0 && maze[y-1][x] == 0) rats[i].target_y--;
    000002A1 F8 0F            [12]  665 	ldhl	sp,	#15
    000002A3 7E               [ 8]  666 	ld	a, (hl)
    000002A4 3D               [ 4]  667 	dec	a
    000002A5 20 37            [12]  668 	jr	NZ, 00112$
    000002A7 F8 0B            [12]  669 	ldhl	sp,	#11
    000002A9 7E               [ 8]  670 	ld	a, (hl)
    000002AA B7               [ 4]  671 	or	a, a
    000002AB 28 31            [12]  672 	jr	Z, 00112$
    000002AD 2B               [ 8]  673 	dec	hl
    000002AE 2B               [ 8]  674 	dec	hl
    000002AF 2A               [ 8]  675 	ld	a, (hl+)
    000002B0 4F               [ 4]  676 	ld	c, a
    000002B1 46               [ 8]  677 	ld	b, (hl)
    000002B2 0B               [ 8]  678 	dec	bc
    000002B3 69               [ 4]  679 	ld	l, c
    000002B4 60               [ 4]  680 	ld	h, b
    000002B5 29               [ 8]  681 	add	hl, hl
    000002B6 29               [ 8]  682 	add	hl, hl
    000002B7 29               [ 8]  683 	add	hl, hl
    000002B8 29               [ 8]  684 	add	hl, hl
    000002B9 29               [ 8]  685 	add	hl, hl
    000002BA 7D               [ 4]  686 	ld	a, l
    000002BB C6r00            [ 8]  687 	add	a, #<(_maze)
    000002BD 4F               [ 4]  688 	ld	c, a
    000002BE 7C               [ 4]  689 	ld	a, h
    000002BF CEs00            [ 8]  690 	adc	a, #>(_maze)
    000002C1 47               [ 4]  691 	ld	b, a
    000002C2 F8 0C            [12]  692 	ldhl	sp,	#12
    000002C4 6E               [ 8]  693 	ld	l, (hl)
    000002C5 26 00            [ 8]  694 	ld	h, #0x00
    000002C7 09               [ 8]  695 	add	hl, bc
    000002C8 4D               [ 4]  696 	ld	c, l
    000002C9 44               [ 4]  697 	ld	b, h
    000002CA 0A               [ 8]  698 	ld	a, (bc)
    000002CB B7               [ 4]  699 	or	a, a
    000002CC 20 10            [12]  700 	jr	NZ, 00112$
    000002CE F8 02            [12]  701 	ldhl	sp,#2
    000002D0 2A               [ 8]  702 	ld	a, (hl+)
    000002D1 5F               [ 4]  703 	ld	e, a
    000002D2 56               [ 8]  704 	ld	d, (hl)
    000002D3 21 04 00         [12]  705 	ld	hl, #0x0004
    000002D6 19               [ 8]  706 	add	hl, de
    000002D7 4D               [ 4]  707 	ld	c, l
    000002D8 44               [ 4]  708 	ld	b, h
    000002D9 0A               [ 8]  709 	ld	a, (bc)
    000002DA 3D               [ 4]  710 	dec	a
    000002DB 02               [ 8]  711 	ld	(bc), a
    000002DC 18 73            [12]  712 	jr	00118$
    000002DE                        713 00112$:
                                    714 ;src/rat.c:96: else if (initial_dir == 2 && x > 0 && maze[y][x-1] == 0) rats[i].target_x--;
    000002DE F8 0C            [12]  715 	ldhl	sp,	#12
    000002E0 7E               [ 8]  716 	ld	a, (hl)
    000002E1 F8 08            [12]  717 	ldhl	sp,	#8
    000002E3 77               [ 8]  718 	ld	(hl), a
    000002E4 3E 05            [ 8]  719 	ld	a, #0x05
    000002E6                        720 00337$:
    000002E6 F8 09            [12]  721 	ldhl	sp,	#9
    000002E8 CB 26            [16]  722 	sla	(hl)
    000002EA 23               [ 8]  723 	inc	hl
    000002EB CB 16            [16]  724 	rl	(hl)
    000002ED 3D               [ 4]  725 	dec	a
    000002EE 20 F6            [12]  726 	jr	NZ, 00337$
    000002F0 F8 02            [12]  727 	ldhl	sp,	#2
    000002F2 2A               [ 8]  728 	ld	a, (hl+)
    000002F3 4F               [ 4]  729 	ld	c, a
    000002F4 46               [ 8]  730 	ld	b, (hl)
    000002F5 03               [ 8]  731 	inc	bc
    000002F6 03               [ 8]  732 	inc	bc
    000002F7 03               [ 8]  733 	inc	bc
    000002F8 F8 0F            [12]  734 	ldhl	sp,	#15
    000002FA 7E               [ 8]  735 	ld	a, (hl)
    000002FB D6 02            [ 8]  736 	sub	a, #0x02
    000002FD 20 22            [12]  737 	jr	NZ, 00107$
    000002FF F8 0C            [12]  738 	ldhl	sp,	#12
    00000301 7E               [ 8]  739 	ld	a, (hl)
    00000302 B7               [ 4]  740 	or	a, a
    00000303 28 1C            [12]  741 	jr	Z, 00107$
    00000305 11r00r00         [12]  742 	ld	de, #_maze
    00000308 F8 09            [12]  743 	ldhl	sp,	#9
    0000030A 2A               [ 8]  744 	ld	a,	(hl+)
    0000030B 66               [ 8]  745 	ld	h, (hl)
    0000030C 6F               [ 4]  746 	ld	l, a
    0000030D 19               [ 8]  747 	add	hl, de
    0000030E 5D               [ 4]  748 	ld	e, l
    0000030F 54               [ 4]  749 	ld	d, h
    00000310 F8 08            [12]  750 	ldhl	sp,	#8
    00000312 7E               [ 8]  751 	ld	a, (hl)
    00000313 3D               [ 4]  752 	dec	a
    00000314 6F               [ 4]  753 	ld	l, a
    00000315 26 00            [ 8]  754 	ld	h, #0x00
    00000317 19               [ 8]  755 	add	hl, de
    00000318 7E               [ 8]  756 	ld	a, (hl)
    00000319 B7               [ 4]  757 	or	a, a
    0000031A 20 05            [12]  758 	jr	NZ, 00107$
    0000031C 0A               [ 8]  759 	ld	a, (bc)
    0000031D 3D               [ 4]  760 	dec	a
    0000031E 02               [ 8]  761 	ld	(bc), a
    0000031F 18 30            [12]  762 	jr	00118$
    00000321                        763 00107$:
                                    764 ;src/rat.c:97: else if (initial_dir == 3 && x < MAZE_WIDTH - 1 && maze[y][x+1] == 0) rats[i].target_x++;
    00000321 F8 0F            [12]  765 	ldhl	sp,	#15
    00000323 7E               [ 8]  766 	ld	a, (hl)
    00000324 D6 03            [ 8]  767 	sub	a, #0x03
    00000326 20 22            [12]  768 	jr	NZ, 00102$
    00000328 F8 0C            [12]  769 	ldhl	sp,	#12
    0000032A 7E               [ 8]  770 	ld	a, (hl)
    0000032B D6 12            [ 8]  771 	sub	a, #0x12
    0000032D 30 1B            [12]  772 	jr	NC, 00102$
    0000032F 11r00r00         [12]  773 	ld	de, #_maze
    00000332 F8 09            [12]  774 	ldhl	sp,	#9
    00000334 2A               [ 8]  775 	ld	a,	(hl+)
    00000335 66               [ 8]  776 	ld	h, (hl)
    00000336 6F               [ 4]  777 	ld	l, a
    00000337 19               [ 8]  778 	add	hl, de
    00000338 5D               [ 4]  779 	ld	e, l
    00000339 54               [ 4]  780 	ld	d, h
    0000033A F8 08            [12]  781 	ldhl	sp,	#8
    0000033C 6E               [ 8]  782 	ld	l, (hl)
    0000033D 2C               [ 4]  783 	inc	l
    0000033E 26 00            [ 8]  784 	ld	h, #0x00
    00000340 19               [ 8]  785 	add	hl, de
    00000341 7E               [ 8]  786 	ld	a, (hl)
    00000342 B7               [ 4]  787 	or	a, a
    00000343 20 05            [12]  788 	jr	NZ, 00102$
    00000345 0A               [ 8]  789 	ld	a, (bc)
    00000346 3C               [ 4]  790 	inc	a
    00000347 02               [ 8]  791 	ld	(bc), a
    00000348 18 07            [12]  792 	jr	00118$
    0000034A                        793 00102$:
                                    794 ;src/rat.c:98: else rats[i].current_dir = 255; // Nessuna direzione valida trovata
    0000034A F8 04            [12]  795 	ldhl	sp,	#4
    0000034C 2A               [ 8]  796 	ld	a, (hl+)
    0000034D 66               [ 8]  797 	ld	h, (hl)
    0000034E 6F               [ 4]  798 	ld	l, a
    0000034F 36 FF            [12]  799 	ld	(hl), #0xff
    00000351                        800 00118$:
                                    801 ;src/rat.c:100: rats[i].pixel_x = x * 8;
    00000351 F8 02            [12]  802 	ldhl	sp,#2
    00000353 2A               [ 8]  803 	ld	a, (hl+)
    00000354 5F               [ 4]  804 	ld	e, a
    00000355 56               [ 8]  805 	ld	d, (hl)
    00000356 21 05 00         [12]  806 	ld	hl, #0x0005
    00000359 19               [ 8]  807 	add	hl, de
    0000035A 4D               [ 4]  808 	ld	c, l
    0000035B 44               [ 4]  809 	ld	b, h
    0000035C F8 0C            [12]  810 	ldhl	sp,	#12
    0000035E 7E               [ 8]  811 	ld	a, (hl)
    0000035F 87               [ 4]  812 	add	a, a
    00000360 87               [ 4]  813 	add	a, a
    00000361 87               [ 4]  814 	add	a, a
    00000362 02               [ 8]  815 	ld	(bc), a
                                    816 ;src/rat.c:101: rats[i].pixel_y = y * 8;
    00000363 F8 02            [12]  817 	ldhl	sp,#2
    00000365 2A               [ 8]  818 	ld	a, (hl+)
    00000366 5F               [ 4]  819 	ld	e, a
    00000367 56               [ 8]  820 	ld	d, (hl)
    00000368 21 06 00         [12]  821 	ld	hl, #0x0006
    0000036B 19               [ 8]  822 	add	hl, de
    0000036C 5D               [ 4]  823 	ld	e, l
    0000036D 54               [ 4]  824 	ld	d, h
    0000036E F8 0B            [12]  825 	ldhl	sp,	#11
    00000370 7E               [ 8]  826 	ld	a, (hl)
    00000371 87               [ 4]  827 	add	a, a
    00000372 87               [ 4]  828 	add	a, a
    00000373 87               [ 4]  829 	add	a, a
    00000374 6F               [ 4]  830 	ld	l, a
    00000375 12               [ 8]  831 	ld	(de), a
                                    832 ;src/rat.c:105: uint8_t base_x = rats[i].pixel_x + 12;
    00000376 0A               [ 8]  833 	ld	a, (bc)
    00000377 C6 0C            [ 8]  834 	add	a, #0x0c
    00000379 E5               [16]  835 	push	hl
    0000037A F8 08            [12]  836 	ldhl	sp,	#8
    0000037C 77               [ 8]  837 	ld	(hl), a
    0000037D E1               [12]  838 	pop	hl
                                    839 ;src/rat.c:106: uint8_t base_y = rats[i].pixel_y + 20;
    0000037E 7D               [ 4]  840 	ld	a, l
    0000037F C6 14            [ 8]  841 	add	a, #0x14
    00000381 F8 07            [12]  842 	ldhl	sp,	#7
    00000383 77               [ 8]  843 	ld	(hl), a
                                    844 ;src/rat.c:107: uint8_t s0 = rats[i].sprite_base_idx;
    00000384 F8 02            [12]  845 	ldhl	sp,#2
    00000386 2A               [ 8]  846 	ld	a, (hl+)
    00000387 5F               [ 4]  847 	ld	e, a
    00000388 56               [ 8]  848 	ld	d, (hl)
    00000389 21 08 00         [12]  849 	ld	hl, #0x0008
    0000038C 19               [ 8]  850 	add	hl, de
    0000038D 4D               [ 4]  851 	ld	c, l
    0000038E 44               [ 4]  852 	ld	b, h
    0000038F 0A               [ 8]  853 	ld	a, (bc)
    00000390 F8 08            [12]  854 	ldhl	sp,	#8
                                    855 ;src/rat.c:108: uint8_t s1 = rats[i].sprite_base_idx + 1;
    00000392 22               [ 8]  856 	ld	(hl+), a
    00000393 3C               [ 4]  857 	inc	a
    00000394 77               [ 8]  858 	ld	(hl), a
                                    859 ;src/rat.c:110: if (rats[i].current_dir == 0 || rats[i].current_dir == 255) {
    00000395 F8 04            [12]  860 	ldhl	sp,#4
    00000397 2A               [ 8]  861 	ld	a, (hl+)
    00000398 5F               [ 4]  862 	ld	e, a
    00000399 56               [ 8]  863 	ld	d, (hl)
    0000039A 1A               [ 8]  864 	ld	a, (de)
    0000039B F8 0A            [12]  865 	ldhl	sp,	#10
    0000039D 77               [ 8]  866 	ld	(hl), a
    0000039E 7E               [ 8]  867 	ld	a, (hl)
    0000039F B7               [ 4]  868 	or	a, a
    000003A0 28 05            [12]  869 	jr	Z, 00129$
    000003A2 7E               [ 8]  870 	ld	a, (hl)
    000003A3 3C               [ 4]  871 	inc	a
    000003A4 C2r47r04         [16]  872 	jp	NZ, 00130$
    000003A7                        873 00129$:
                                    874 ;/home/enne2/.local/gbdk/include/gb/gb.h:1887: shadow_OAM[nb].tile=tile;
    000003A7 F8 08            [12]  875 	ldhl	sp,	#8
    000003A9 7E               [ 8]  876 	ld	a, (hl)
    000003AA F8 04            [12]  877 	ldhl	sp,	#4
    000003AC 22               [ 8]  878 	ld	(hl+), a
    000003AD 36 00            [12]  879 	ld	(hl), #0x00
    000003AF 3E 02            [ 8]  880 	ld	a, #0x02
    000003B1                        881 00344$:
    000003B1 F8 04            [12]  882 	ldhl	sp,	#4
    000003B3 CB 26            [16]  883 	sla	(hl)
    000003B5 23               [ 8]  884 	inc	hl
    000003B6 CB 16            [16]  885 	rl	(hl)
    000003B8 3D               [ 4]  886 	dec	a
    000003B9 20 F6            [12]  887 	jr	NZ, 00344$
    000003BB 2B               [ 8]  888 	dec	hl
    000003BC 2A               [ 8]  889 	ld	a, (hl+)
    000003BD 5F               [ 4]  890 	ld	e, a
    000003BE 56               [ 8]  891 	ld	d, (hl)
    000003BF 21r00r00         [12]  892 	ld	hl, #_shadow_OAM
    000003C2 19               [ 8]  893 	add	hl, de
    000003C3 33               [ 8]  894 	inc	sp
    000003C4 33               [ 8]  895 	inc	sp
    000003C5 E5               [16]  896 	push	hl
    000003C6 23               [ 8]  897 	inc	hl
    000003C7 23               [ 8]  898 	inc	hl
    000003C8 36 02            [12]  899 	ld	(hl), #0x02
    000003CA F8 09            [12]  900 	ldhl	sp,	#9
    000003CC 7E               [ 8]  901 	ld	a, (hl)
    000003CD F8 00            [12]  902 	ldhl	sp,	#0
    000003CF 22               [ 8]  903 	ld	(hl+), a
    000003D0 AF               [ 4]  904 	xor	a, a
    000003D1 32               [ 8]  905 	ld	(hl-), a
    000003D2 7E               [ 8]  906 	ld	a, (hl)
    000003D3 F8 09            [12]  907 	ldhl	sp,	#9
    000003D5 22               [ 8]  908 	ld	(hl+), a
    000003D6 36 00            [12]  909 	ld	(hl), #0x00
    000003D8 3E 02            [ 8]  910 	ld	a, #0x02
    000003DA                        911 00345$:
    000003DA F8 09            [12]  912 	ldhl	sp,	#9
    000003DC CB 26            [16]  913 	sla	(hl)
    000003DE 23               [ 8]  914 	inc	hl
    000003DF CB 16            [16]  915 	rl	(hl)
    000003E1 3D               [ 4]  916 	dec	a
    000003E2 20 F6            [12]  917 	jr	NZ, 00345$
    000003E4 2B               [ 8]  918 	dec	hl
    000003E5 2A               [ 8]  919 	ld	a, (hl+)
    000003E6 5F               [ 4]  920 	ld	e, a
    000003E7 56               [ 8]  921 	ld	d, (hl)
    000003E8 21r00r00         [12]  922 	ld	hl, #_shadow_OAM
    000003EB 19               [ 8]  923 	add	hl, de
    000003EC 33               [ 8]  924 	inc	sp
    000003ED 33               [ 8]  925 	inc	sp
    000003EE E5               [16]  926 	push	hl
    000003EF 23               [ 8]  927 	inc	hl
    000003F0 23               [ 8]  928 	inc	hl
    000003F1 36 03            [12]  929 	ld	(hl), #0x03
                                    930 ;/home/enne2/.local/gbdk/include/gb/gb.h:1946: shadow_OAM[nb].prop=prop;
    000003F3 11r00r00         [12]  931 	ld	de, #_shadow_OAM
    000003F6 F8 04            [12]  932 	ldhl	sp,	#4
    000003F8 2A               [ 8]  933 	ld	a,	(hl+)
    000003F9 66               [ 8]  934 	ld	h, (hl)
    000003FA 6F               [ 4]  935 	ld	l, a
    000003FB 19               [ 8]  936 	add	hl, de
    000003FC 23               [ 8]  937 	inc	hl
    000003FD 23               [ 8]  938 	inc	hl
    000003FE 23               [ 8]  939 	inc	hl
    000003FF 4D               [ 4]  940 	ld	c, l
    00000400 44               [ 4]  941 	ld	b, h
    00000401 AF               [ 4]  942 	xor	a, a
    00000402 02               [ 8]  943 	ld	(bc), a
    00000403 11r00r00         [12]  944 	ld	de, #_shadow_OAM
    00000406 F8 09            [12]  945 	ldhl	sp,	#9
    00000408 2A               [ 8]  946 	ld	a,	(hl+)
    00000409 66               [ 8]  947 	ld	h, (hl)
    0000040A 6F               [ 4]  948 	ld	l, a
    0000040B 19               [ 8]  949 	add	hl, de
    0000040C 23               [ 8]  950 	inc	hl
    0000040D 23               [ 8]  951 	inc	hl
    0000040E 23               [ 8]  952 	inc	hl
    0000040F 4D               [ 4]  953 	ld	c, l
    00000410 44               [ 4]  954 	ld	b, h
    00000411 AF               [ 4]  955 	xor	a, a
    00000412 02               [ 8]  956 	ld	(bc), a
                                    957 ;src/rat.c:113: move_sprite(s0, base_x, base_y - 4); move_sprite(s1, base_x, base_y + 4);
    00000413 F8 07            [12]  958 	ldhl	sp,	#7
    00000415 2A               [ 8]  959 	ld	a, (hl+)
    00000416 77               [ 8]  960 	ld	(hl), a
    00000417 3A               [ 8]  961 	ld	a, (hl-)
    00000418 C6 FC            [ 8]  962 	add	a, #0xfc
    0000041A 77               [ 8]  963 	ld	(hl), a
                                    964 ;/home/enne2/.local/gbdk/include/gb/gb.h:1973: OAM_item_t * itm = &shadow_OAM[nb];
    0000041B 11r00r00         [12]  965 	ld	de, #_shadow_OAM
    0000041E F8 04            [12]  966 	ldhl	sp,	#4
    00000420 2A               [ 8]  967 	ld	a,	(hl+)
    00000421 66               [ 8]  968 	ld	h, (hl)
    00000422 6F               [ 4]  969 	ld	l, a
    00000423 19               [ 8]  970 	add	hl, de
    00000424 4D               [ 4]  971 	ld	c, l
    00000425 44               [ 4]  972 	ld	b, h
                                    973 ;/home/enne2/.local/gbdk/include/gb/gb.h:1974: itm->y=y, itm->x=x;
    00000426 F8 07            [12]  974 	ldhl	sp,	#7
    00000428 3A               [ 8]  975 	ld	a, (hl-)
    00000429 02               [ 8]  976 	ld	(bc), a
    0000042A 03               [ 8]  977 	inc	bc
                                    978 ;src/rat.c:113: move_sprite(s0, base_x, base_y - 4); move_sprite(s1, base_x, base_y + 4);
    0000042B 2A               [ 8]  979 	ld	a, (hl+)
    0000042C 23               [ 8]  980 	inc	hl
    0000042D 02               [ 8]  981 	ld	(bc), a
                                    982 ;/home/enne2/.local/gbdk/include/gb/gb.h:1973: OAM_item_t * itm = &shadow_OAM[nb];
    0000042E 2A               [ 8]  983 	ld	a, (hl+)
    0000042F 4F               [ 4]  984 	ld	c, a
    00000430 0C               [ 4]  985 	inc	c
    00000431 0C               [ 4]  986 	inc	c
    00000432 0C               [ 4]  987 	inc	c
    00000433 0C               [ 4]  988 	inc	c
    00000434 11r00r00         [12]  989 	ld	de, #_shadow_OAM
    00000437 2A               [ 8]  990 	ld	a,	(hl+)
    00000438 66               [ 8]  991 	ld	h, (hl)
    00000439 6F               [ 4]  992 	ld	l, a
    0000043A 19               [ 8]  993 	add	hl, de
    0000043B 5D               [ 4]  994 	ld	e, l
    0000043C 54               [ 4]  995 	ld	d, h
                                    996 ;/home/enne2/.local/gbdk/include/gb/gb.h:1974: itm->y=y, itm->x=x;
    0000043D 79               [ 4]  997 	ld	a, c
    0000043E 12               [ 8]  998 	ld	(de), a
    0000043F 13               [ 8]  999 	inc	de
    00000440 F8 06            [12] 1000 	ldhl	sp,	#6
    00000442 7E               [ 8] 1001 	ld	a, (hl)
    00000443 12               [ 8] 1002 	ld	(de), a
                                   1003 ;src/rat.c:113: move_sprite(s0, base_x, base_y - 4); move_sprite(s1, base_x, base_y + 4);
    00000444 C3r2Ar06         [16] 1004 	jp	00131$
    00000447                       1005 00130$:
                                   1006 ;src/rat.c:114: } else if (rats[i].current_dir == 1) {
    00000447 F8 0A            [12] 1007 	ldhl	sp,	#10
    00000449 7E               [ 8] 1008 	ld	a, (hl)
    0000044A 3D               [ 4] 1009 	dec	a
    0000044B C2rE7r04         [16] 1010 	jp	NZ, 00127$
                                   1011 ;/home/enne2/.local/gbdk/include/gb/gb.h:1887: shadow_OAM[nb].tile=tile;
    0000044E F8 08            [12] 1012 	ldhl	sp,	#8
    00000450 7E               [ 8] 1013 	ld	a, (hl)
    00000451 F8 04            [12] 1014 	ldhl	sp,	#4
    00000453 22               [ 8] 1015 	ld	(hl+), a
    00000454 36 00            [12] 1016 	ld	(hl), #0x00
    00000456 3E 02            [ 8] 1017 	ld	a, #0x02
    00000458                       1018 00348$:
    00000458 F8 04            [12] 1019 	ldhl	sp,	#4
    0000045A CB 26            [16] 1020 	sla	(hl)
    0000045C 23               [ 8] 1021 	inc	hl
    0000045D CB 16            [16] 1022 	rl	(hl)
    0000045F 3D               [ 4] 1023 	dec	a
    00000460 20 F6            [12] 1024 	jr	NZ, 00348$
    00000462 11r00r00         [12] 1025 	ld	de, #_shadow_OAM
    00000465 3A               [ 8] 1026 	ld	a, (hl-)
    00000466 6E               [ 8] 1027 	ld	l, (hl)
    00000467 67               [ 4] 1028 	ld	h, a
    00000468 19               [ 8] 1029 	add	hl, de
    00000469 33               [ 8] 1030 	inc	sp
    0000046A 33               [ 8] 1031 	inc	sp
    0000046B E5               [16] 1032 	push	hl
    0000046C 23               [ 8] 1033 	inc	hl
    0000046D 23               [ 8] 1034 	inc	hl
    0000046E 36 03            [12] 1035 	ld	(hl), #0x03
    00000470 F8 09            [12] 1036 	ldhl	sp,	#9
    00000472 7E               [ 8] 1037 	ld	a, (hl)
    00000473 F8 00            [12] 1038 	ldhl	sp,	#0
    00000475 22               [ 8] 1039 	ld	(hl+), a
    00000476 AF               [ 4] 1040 	xor	a, a
    00000477 32               [ 8] 1041 	ld	(hl-), a
    00000478 7E               [ 8] 1042 	ld	a, (hl)
    00000479 F8 09            [12] 1043 	ldhl	sp,	#9
    0000047B 22               [ 8] 1044 	ld	(hl+), a
    0000047C 36 00            [12] 1045 	ld	(hl), #0x00
    0000047E 3E 02            [ 8] 1046 	ld	a, #0x02
    00000480                       1047 00349$:
    00000480 F8 09            [12] 1048 	ldhl	sp,	#9
    00000482 CB 26            [16] 1049 	sla	(hl)
    00000484 23               [ 8] 1050 	inc	hl
    00000485 CB 16            [16] 1051 	rl	(hl)
    00000487 3D               [ 4] 1052 	dec	a
    00000488 20 F6            [12] 1053 	jr	NZ, 00349$
    0000048A 11r00r00         [12] 1054 	ld	de, #_shadow_OAM
    0000048D 3A               [ 8] 1055 	ld	a, (hl-)
    0000048E 6E               [ 8] 1056 	ld	l, (hl)
    0000048F 67               [ 4] 1057 	ld	h, a
    00000490 19               [ 8] 1058 	add	hl, de
    00000491 33               [ 8] 1059 	inc	sp
    00000492 33               [ 8] 1060 	inc	sp
    00000493 E5               [16] 1061 	push	hl
    00000494 23               [ 8] 1062 	inc	hl
    00000495 23               [ 8] 1063 	inc	hl
    00000496 36 02            [12] 1064 	ld	(hl), #0x02
                                   1065 ;/home/enne2/.local/gbdk/include/gb/gb.h:1946: shadow_OAM[nb].prop=prop;
    00000498 01r00r00         [12] 1066 	ld	bc, #_shadow_OAM+0
    0000049B F8 04            [12] 1067 	ldhl	sp,	#4
    0000049D 2A               [ 8] 1068 	ld	a,	(hl+)
    0000049E 66               [ 8] 1069 	ld	h, (hl)
    0000049F 6F               [ 4] 1070 	ld	l, a
    000004A0 09               [ 8] 1071 	add	hl, bc
    000004A1 23               [ 8] 1072 	inc	hl
    000004A2 23               [ 8] 1073 	inc	hl
    000004A3 23               [ 8] 1074 	inc	hl
    000004A4 36 40            [12] 1075 	ld	(hl), #0x40
    000004A6 01r00r00         [12] 1076 	ld	bc, #_shadow_OAM+0
    000004A9 F8 09            [12] 1077 	ldhl	sp,	#9
    000004AB 2A               [ 8] 1078 	ld	a,	(hl+)
    000004AC 66               [ 8] 1079 	ld	h, (hl)
    000004AD 6F               [ 4] 1080 	ld	l, a
    000004AE 09               [ 8] 1081 	add	hl, bc
    000004AF 23               [ 8] 1082 	inc	hl
    000004B0 23               [ 8] 1083 	inc	hl
    000004B1 23               [ 8] 1084 	inc	hl
    000004B2 36 40            [12] 1085 	ld	(hl), #0x40
                                   1086 ;src/rat.c:117: move_sprite(s0, base_x, base_y - 4); move_sprite(s1, base_x, base_y + 4);
    000004B4 F8 07            [12] 1087 	ldhl	sp,	#7
    000004B6 2A               [ 8] 1088 	ld	a, (hl+)
    000004B7 5F               [ 4] 1089 	ld	e, a
    000004B8 C6 FC            [ 8] 1090 	add	a, #0xfc
    000004BA 77               [ 8] 1091 	ld	(hl), a
                                   1092 ;/home/enne2/.local/gbdk/include/gb/gb.h:1973: OAM_item_t * itm = &shadow_OAM[nb];
    000004BB 01r00r00         [12] 1093 	ld	bc, #_shadow_OAM+0
    000004BE F8 04            [12] 1094 	ldhl	sp,	#4
    000004C0 2A               [ 8] 1095 	ld	a,	(hl+)
    000004C1 66               [ 8] 1096 	ld	h, (hl)
    000004C2 6F               [ 4] 1097 	ld	l, a
    000004C3 09               [ 8] 1098 	add	hl, bc
    000004C4 4D               [ 4] 1099 	ld	c, l
    000004C5 44               [ 4] 1100 	ld	b, h
                                   1101 ;/home/enne2/.local/gbdk/include/gb/gb.h:1974: itm->y=y, itm->x=x;
    000004C6 F8 08            [12] 1102 	ldhl	sp,	#8
    000004C8 3A               [ 8] 1103 	ld	a, (hl-)
    000004C9 2B               [ 8] 1104 	dec	hl
    000004CA 02               [ 8] 1105 	ld	(bc), a
    000004CB 03               [ 8] 1106 	inc	bc
    000004CC 7E               [ 8] 1107 	ld	a, (hl)
    000004CD 02               [ 8] 1108 	ld	(bc), a
                                   1109 ;src/rat.c:117: move_sprite(s0, base_x, base_y - 4); move_sprite(s1, base_x, base_y + 4);
    000004CE 1C               [ 4] 1110 	inc	e
    000004CF 1C               [ 4] 1111 	inc	e
    000004D0 1C               [ 4] 1112 	inc	e
    000004D1 1C               [ 4] 1113 	inc	e
                                   1114 ;/home/enne2/.local/gbdk/include/gb/gb.h:1973: OAM_item_t * itm = &shadow_OAM[nb];
    000004D2 01r00r00         [12] 1115 	ld	bc, #_shadow_OAM+0
    000004D5 F8 09            [12] 1116 	ldhl	sp,	#9
    000004D7 2A               [ 8] 1117 	ld	a,	(hl+)
    000004D8 66               [ 8] 1118 	ld	h, (hl)
    000004D9 6F               [ 4] 1119 	ld	l, a
    000004DA 09               [ 8] 1120 	add	hl, bc
    000004DB 4D               [ 4] 1121 	ld	c, l
    000004DC 44               [ 4] 1122 	ld	b, h
                                   1123 ;/home/enne2/.local/gbdk/include/gb/gb.h:1974: itm->y=y, itm->x=x;
    000004DD 7B               [ 4] 1124 	ld	a, e
    000004DE 02               [ 8] 1125 	ld	(bc), a
    000004DF 03               [ 8] 1126 	inc	bc
    000004E0 F8 06            [12] 1127 	ldhl	sp,	#6
    000004E2 7E               [ 8] 1128 	ld	a, (hl)
    000004E3 02               [ 8] 1129 	ld	(bc), a
                                   1130 ;src/rat.c:117: move_sprite(s0, base_x, base_y - 4); move_sprite(s1, base_x, base_y + 4);
    000004E4 C3r2Ar06         [16] 1131 	jp	00131$
    000004E7                       1132 00127$:
                                   1133 ;src/rat.c:118: } else if (rats[i].current_dir == 2) {
    000004E7 F8 0A            [12] 1134 	ldhl	sp,	#10
    000004E9 7E               [ 8] 1135 	ld	a, (hl)
    000004EA D6 02            [ 8] 1136 	sub	a, #0x02
    000004EC C2r88r05         [16] 1137 	jp	NZ, 00124$
                                   1138 ;/home/enne2/.local/gbdk/include/gb/gb.h:1887: shadow_OAM[nb].tile=tile;
    000004EF F8 08            [12] 1139 	ldhl	sp,	#8
    000004F1 7E               [ 8] 1140 	ld	a, (hl)
    000004F2 F8 04            [12] 1141 	ldhl	sp,	#4
    000004F4 22               [ 8] 1142 	ld	(hl+), a
    000004F5 36 00            [12] 1143 	ld	(hl), #0x00
    000004F7 3E 02            [ 8] 1144 	ld	a, #0x02
    000004F9                       1145 00352$:
    000004F9 F8 04            [12] 1146 	ldhl	sp,	#4
    000004FB CB 26            [16] 1147 	sla	(hl)
    000004FD 23               [ 8] 1148 	inc	hl
    000004FE CB 16            [16] 1149 	rl	(hl)
    00000500 3D               [ 4] 1150 	dec	a
    00000501 20 F6            [12] 1151 	jr	NZ, 00352$
    00000503 11r00r00         [12] 1152 	ld	de, #_shadow_OAM
    00000506 3A               [ 8] 1153 	ld	a, (hl-)
    00000507 6E               [ 8] 1154 	ld	l, (hl)
    00000508 67               [ 4] 1155 	ld	h, a
    00000509 19               [ 8] 1156 	add	hl, de
    0000050A 33               [ 8] 1157 	inc	sp
    0000050B 33               [ 8] 1158 	inc	sp
    0000050C E5               [16] 1159 	push	hl
    0000050D 23               [ 8] 1160 	inc	hl
    0000050E 23               [ 8] 1161 	inc	hl
    0000050F 36 01            [12] 1162 	ld	(hl), #0x01
    00000511 F8 09            [12] 1163 	ldhl	sp,	#9
    00000513 7E               [ 8] 1164 	ld	a, (hl)
    00000514 F8 00            [12] 1165 	ldhl	sp,	#0
    00000516 22               [ 8] 1166 	ld	(hl+), a
    00000517 AF               [ 4] 1167 	xor	a, a
    00000518 32               [ 8] 1168 	ld	(hl-), a
    00000519 7E               [ 8] 1169 	ld	a, (hl)
    0000051A F8 09            [12] 1170 	ldhl	sp,	#9
    0000051C 22               [ 8] 1171 	ld	(hl+), a
    0000051D 36 00            [12] 1172 	ld	(hl), #0x00
    0000051F 3E 02            [ 8] 1173 	ld	a, #0x02
    00000521                       1174 00353$:
    00000521 F8 09            [12] 1175 	ldhl	sp,	#9
    00000523 CB 26            [16] 1176 	sla	(hl)
    00000525 23               [ 8] 1177 	inc	hl
    00000526 CB 16            [16] 1178 	rl	(hl)
    00000528 3D               [ 4] 1179 	dec	a
    00000529 20 F6            [12] 1180 	jr	NZ, 00353$
    0000052B 11r00r00         [12] 1181 	ld	de, #_shadow_OAM
    0000052E 3A               [ 8] 1182 	ld	a, (hl-)
    0000052F 6E               [ 8] 1183 	ld	l, (hl)
    00000530 67               [ 4] 1184 	ld	h, a
    00000531 19               [ 8] 1185 	add	hl, de
    00000532 33               [ 8] 1186 	inc	sp
    00000533 33               [ 8] 1187 	inc	sp
    00000534 4D               [ 4] 1188 	ld	c, l
    00000535 44               [ 4] 1189 	ld	b, h
    00000536 C5               [16] 1190 	push	bc
    00000537 03               [ 8] 1191 	inc	bc
    00000538 03               [ 8] 1192 	inc	bc
    00000539 AF               [ 4] 1193 	xor	a, a
    0000053A 02               [ 8] 1194 	ld	(bc), a
                                   1195 ;/home/enne2/.local/gbdk/include/gb/gb.h:1946: shadow_OAM[nb].prop=prop;
    0000053B 01r00r00         [12] 1196 	ld	bc, #_shadow_OAM+0
    0000053E F8 04            [12] 1197 	ldhl	sp,	#4
    00000540 2A               [ 8] 1198 	ld	a,	(hl+)
    00000541 66               [ 8] 1199 	ld	h, (hl)
    00000542 6F               [ 4] 1200 	ld	l, a
    00000543 09               [ 8] 1201 	add	hl, bc
    00000544 23               [ 8] 1202 	inc	hl
    00000545 23               [ 8] 1203 	inc	hl
    00000546 23               [ 8] 1204 	inc	hl
    00000547 36 20            [12] 1205 	ld	(hl), #0x20
    00000549 01r00r00         [12] 1206 	ld	bc, #_shadow_OAM+0
    0000054C F8 09            [12] 1207 	ldhl	sp,	#9
    0000054E 2A               [ 8] 1208 	ld	a,	(hl+)
    0000054F 66               [ 8] 1209 	ld	h, (hl)
    00000550 6F               [ 4] 1210 	ld	l, a
    00000551 09               [ 8] 1211 	add	hl, bc
    00000552 23               [ 8] 1212 	inc	hl
    00000553 23               [ 8] 1213 	inc	hl
    00000554 23               [ 8] 1214 	inc	hl
    00000555 36 20            [12] 1215 	ld	(hl), #0x20
                                   1216 ;src/rat.c:121: move_sprite(s0, base_x - 4, base_y); move_sprite(s1, base_x + 4, base_y);
    00000557 F8 06            [12] 1217 	ldhl	sp,	#6
    00000559 2A               [ 8] 1218 	ld	a, (hl+)
    0000055A 23               [ 8] 1219 	inc	hl
    0000055B 4F               [ 4] 1220 	ld	c, a
    0000055C C6 FC            [ 8] 1221 	add	a, #0xfc
    0000055E 77               [ 8] 1222 	ld	(hl), a
                                   1223 ;/home/enne2/.local/gbdk/include/gb/gb.h:1973: OAM_item_t * itm = &shadow_OAM[nb];
    0000055F 11r00r00         [12] 1224 	ld	de, #_shadow_OAM+0
    00000562 F8 04            [12] 1225 	ldhl	sp,	#4
    00000564 2A               [ 8] 1226 	ld	a,	(hl+)
    00000565 66               [ 8] 1227 	ld	h, (hl)
    00000566 6F               [ 4] 1228 	ld	l, a
    00000567 19               [ 8] 1229 	add	hl, de
    00000568 5D               [ 4] 1230 	ld	e, l
    00000569 54               [ 4] 1231 	ld	d, h
                                   1232 ;/home/enne2/.local/gbdk/include/gb/gb.h:1974: itm->y=y, itm->x=x;
    0000056A F8 07            [12] 1233 	ldhl	sp,	#7
    0000056C 2A               [ 8] 1234 	ld	a, (hl+)
    0000056D 12               [ 8] 1235 	ld	(de), a
    0000056E 13               [ 8] 1236 	inc	de
                                   1237 ;src/rat.c:121: move_sprite(s0, base_x - 4, base_y); move_sprite(s1, base_x + 4, base_y);
                                   1238 ;/home/enne2/.local/gbdk/include/gb/gb.h:1973: OAM_item_t * itm = &shadow_OAM[nb];
    0000056F 2A               [ 8] 1239 	ld	a, (hl+)
    00000570 12               [ 8] 1240 	ld	(de), a
    00000571 0C               [ 4] 1241 	inc	c
    00000572 0C               [ 4] 1242 	inc	c
    00000573 0C               [ 4] 1243 	inc	c
    00000574 0C               [ 4] 1244 	inc	c
    00000575 11r00r00         [12] 1245 	ld	de, #_shadow_OAM+0
    00000578 2A               [ 8] 1246 	ld	a,	(hl+)
    00000579 66               [ 8] 1247 	ld	h, (hl)
    0000057A 6F               [ 4] 1248 	ld	l, a
    0000057B 19               [ 8] 1249 	add	hl, de
    0000057C 5D               [ 4] 1250 	ld	e, l
    0000057D 54               [ 4] 1251 	ld	d, h
                                   1252 ;/home/enne2/.local/gbdk/include/gb/gb.h:1974: itm->y=y, itm->x=x;
    0000057E F8 07            [12] 1253 	ldhl	sp,	#7
    00000580 7E               [ 8] 1254 	ld	a, (hl)
    00000581 12               [ 8] 1255 	ld	(de), a
    00000582 13               [ 8] 1256 	inc	de
    00000583 79               [ 4] 1257 	ld	a, c
    00000584 12               [ 8] 1258 	ld	(de), a
                                   1259 ;src/rat.c:121: move_sprite(s0, base_x - 4, base_y); move_sprite(s1, base_x + 4, base_y);
    00000585 C3r2Ar06         [16] 1260 	jp	00131$
    00000588                       1261 00124$:
                                   1262 ;src/rat.c:122: } else if (rats[i].current_dir == 3) {
    00000588 F8 0A            [12] 1263 	ldhl	sp,	#10
    0000058A 7E               [ 8] 1264 	ld	a, (hl)
    0000058B D6 03            [ 8] 1265 	sub	a, #0x03
    0000058D C2r2Ar06         [16] 1266 	jp	NZ, 00131$
                                   1267 ;/home/enne2/.local/gbdk/include/gb/gb.h:1887: shadow_OAM[nb].tile=tile;
    00000590 F8 08            [12] 1268 	ldhl	sp,	#8
    00000592 7E               [ 8] 1269 	ld	a, (hl)
    00000593 F8 04            [12] 1270 	ldhl	sp,	#4
    00000595 22               [ 8] 1271 	ld	(hl+), a
    00000596 36 00            [12] 1272 	ld	(hl), #0x00
    00000598 3E 02            [ 8] 1273 	ld	a, #0x02
    0000059A                       1274 00356$:
    0000059A F8 04            [12] 1275 	ldhl	sp,	#4
    0000059C CB 26            [16] 1276 	sla	(hl)
    0000059E 23               [ 8] 1277 	inc	hl
    0000059F CB 16            [16] 1278 	rl	(hl)
    000005A1 3D               [ 4] 1279 	dec	a
    000005A2 20 F6            [12] 1280 	jr	NZ, 00356$
    000005A4 11r00r00         [12] 1281 	ld	de, #_shadow_OAM
    000005A7 3A               [ 8] 1282 	ld	a, (hl-)
    000005A8 6E               [ 8] 1283 	ld	l, (hl)
    000005A9 67               [ 4] 1284 	ld	h, a
    000005AA 19               [ 8] 1285 	add	hl, de
    000005AB 33               [ 8] 1286 	inc	sp
    000005AC 33               [ 8] 1287 	inc	sp
    000005AD 4D               [ 4] 1288 	ld	c, l
    000005AE 44               [ 4] 1289 	ld	b, h
    000005AF C5               [16] 1290 	push	bc
    000005B0 03               [ 8] 1291 	inc	bc
    000005B1 03               [ 8] 1292 	inc	bc
    000005B2 AF               [ 4] 1293 	xor	a, a
    000005B3 02               [ 8] 1294 	ld	(bc), a
    000005B4 F8 09            [12] 1295 	ldhl	sp,	#9
    000005B6 7E               [ 8] 1296 	ld	a, (hl)
    000005B7 F8 00            [12] 1297 	ldhl	sp,	#0
    000005B9 22               [ 8] 1298 	ld	(hl+), a
    000005BA AF               [ 4] 1299 	xor	a, a
    000005BB 32               [ 8] 1300 	ld	(hl-), a
    000005BC 7E               [ 8] 1301 	ld	a, (hl)
    000005BD F8 09            [12] 1302 	ldhl	sp,	#9
    000005BF 22               [ 8] 1303 	ld	(hl+), a
    000005C0 36 00            [12] 1304 	ld	(hl), #0x00
    000005C2 3E 02            [ 8] 1305 	ld	a, #0x02
    000005C4                       1306 00357$:
    000005C4 F8 09            [12] 1307 	ldhl	sp,	#9
    000005C6 CB 26            [16] 1308 	sla	(hl)
    000005C8 23               [ 8] 1309 	inc	hl
    000005C9 CB 16            [16] 1310 	rl	(hl)
    000005CB 3D               [ 4] 1311 	dec	a
    000005CC 20 F6            [12] 1312 	jr	NZ, 00357$
    000005CE 11r00r00         [12] 1313 	ld	de, #_shadow_OAM
    000005D1 3A               [ 8] 1314 	ld	a, (hl-)
    000005D2 6E               [ 8] 1315 	ld	l, (hl)
    000005D3 67               [ 4] 1316 	ld	h, a
    000005D4 19               [ 8] 1317 	add	hl, de
    000005D5 33               [ 8] 1318 	inc	sp
    000005D6 33               [ 8] 1319 	inc	sp
    000005D7 E5               [16] 1320 	push	hl
    000005D8 23               [ 8] 1321 	inc	hl
    000005D9 23               [ 8] 1322 	inc	hl
    000005DA 36 01            [12] 1323 	ld	(hl), #0x01
                                   1324 ;/home/enne2/.local/gbdk/include/gb/gb.h:1946: shadow_OAM[nb].prop=prop;
    000005DC 01r00r00         [12] 1325 	ld	bc, #_shadow_OAM+0
    000005DF F8 04            [12] 1326 	ldhl	sp,	#4
    000005E1 2A               [ 8] 1327 	ld	a,	(hl+)
    000005E2 66               [ 8] 1328 	ld	h, (hl)
    000005E3 6F               [ 4] 1329 	ld	l, a
    000005E4 09               [ 8] 1330 	add	hl, bc
    000005E5 23               [ 8] 1331 	inc	hl
    000005E6 23               [ 8] 1332 	inc	hl
    000005E7 23               [ 8] 1333 	inc	hl
    000005E8 4D               [ 4] 1334 	ld	c, l
    000005E9 44               [ 4] 1335 	ld	b, h
    000005EA AF               [ 4] 1336 	xor	a, a
    000005EB 02               [ 8] 1337 	ld	(bc), a
    000005EC 01r00r00         [12] 1338 	ld	bc, #_shadow_OAM+0
    000005EF F8 09            [12] 1339 	ldhl	sp,	#9
    000005F1 2A               [ 8] 1340 	ld	a,	(hl+)
    000005F2 66               [ 8] 1341 	ld	h, (hl)
    000005F3 6F               [ 4] 1342 	ld	l, a
    000005F4 09               [ 8] 1343 	add	hl, bc
    000005F5 23               [ 8] 1344 	inc	hl
    000005F6 23               [ 8] 1345 	inc	hl
    000005F7 23               [ 8] 1346 	inc	hl
    000005F8 4D               [ 4] 1347 	ld	c, l
    000005F9 44               [ 4] 1348 	ld	b, h
    000005FA AF               [ 4] 1349 	xor	a, a
    000005FB 02               [ 8] 1350 	ld	(bc), a
                                   1351 ;src/rat.c:125: move_sprite(s0, base_x - 4, base_y); move_sprite(s1, base_x + 4, base_y);
    000005FC F8 06            [12] 1352 	ldhl	sp,	#6
    000005FE 2A               [ 8] 1353 	ld	a, (hl+)
    000005FF 23               [ 8] 1354 	inc	hl
    00000600 4F               [ 4] 1355 	ld	c, a
    00000601 C6 FC            [ 8] 1356 	add	a, #0xfc
    00000603 77               [ 8] 1357 	ld	(hl), a
                                   1358 ;/home/enne2/.local/gbdk/include/gb/gb.h:1973: OAM_item_t * itm = &shadow_OAM[nb];
    00000604 11r00r00         [12] 1359 	ld	de, #_shadow_OAM+0
    00000607 F8 04            [12] 1360 	ldhl	sp,	#4
    00000609 2A               [ 8] 1361 	ld	a,	(hl+)
    0000060A 66               [ 8] 1362 	ld	h, (hl)
    0000060B 6F               [ 4] 1363 	ld	l, a
    0000060C 19               [ 8] 1364 	add	hl, de
    0000060D 5D               [ 4] 1365 	ld	e, l
    0000060E 54               [ 4] 1366 	ld	d, h
                                   1367 ;/home/enne2/.local/gbdk/include/gb/gb.h:1974: itm->y=y, itm->x=x;
    0000060F F8 07            [12] 1368 	ldhl	sp,	#7
    00000611 2A               [ 8] 1369 	ld	a, (hl+)
    00000612 12               [ 8] 1370 	ld	(de), a
    00000613 13               [ 8] 1371 	inc	de
                                   1372 ;src/rat.c:125: move_sprite(s0, base_x - 4, base_y); move_sprite(s1, base_x + 4, base_y);
                                   1373 ;/home/enne2/.local/gbdk/include/gb/gb.h:1973: OAM_item_t * itm = &shadow_OAM[nb];
    00000614 2A               [ 8] 1374 	ld	a, (hl+)
    00000615 12               [ 8] 1375 	ld	(de), a
    00000616 0C               [ 4] 1376 	inc	c
    00000617 0C               [ 4] 1377 	inc	c
    00000618 0C               [ 4] 1378 	inc	c
    00000619 0C               [ 4] 1379 	inc	c
    0000061A 11r00r00         [12] 1380 	ld	de, #_shadow_OAM+0
    0000061D 2A               [ 8] 1381 	ld	a,	(hl+)
    0000061E 66               [ 8] 1382 	ld	h, (hl)
    0000061F 6F               [ 4] 1383 	ld	l, a
    00000620 19               [ 8] 1384 	add	hl, de
    00000621 5D               [ 4] 1385 	ld	e, l
    00000622 54               [ 4] 1386 	ld	d, h
                                   1387 ;/home/enne2/.local/gbdk/include/gb/gb.h:1974: itm->y=y, itm->x=x;
    00000623 F8 07            [12] 1388 	ldhl	sp,	#7
    00000625 7E               [ 8] 1389 	ld	a, (hl)
    00000626 12               [ 8] 1390 	ld	(de), a
    00000627 13               [ 8] 1391 	inc	de
    00000628 79               [ 4] 1392 	ld	a, c
    00000629 12               [ 8] 1393 	ld	(de), a
                                   1394 ;src/rat.c:125: move_sprite(s0, base_x - 4, base_y); move_sprite(s1, base_x + 4, base_y);
    0000062A                       1395 00131$:
                                   1396 ;src/rat.c:130: rats[i].reproduce_timer = 60; 
    0000062A F8 02            [12] 1397 	ldhl	sp,#2
    0000062C 2A               [ 8] 1398 	ld	a, (hl+)
    0000062D 5F               [ 4] 1399 	ld	e, a
    0000062E 56               [ 8] 1400 	ld	d, (hl)
    0000062F 21 09 00         [12] 1401 	ld	hl, #0x0009
    00000632 19               [ 8] 1402 	add	hl, de
    00000633 E5               [16] 1403 	push	hl
    00000634 7D               [ 4] 1404 	ld	a, l
    00000635 F8 0B            [12] 1405 	ldhl	sp,	#11
    00000637 77               [ 8] 1406 	ld	(hl), a
    00000638 E1               [12] 1407 	pop	hl
    00000639 7C               [ 4] 1408 	ld	a, h
    0000063A F8 0A            [12] 1409 	ldhl	sp,	#10
    0000063C 32               [ 8] 1410 	ld	(hl-), a
    0000063D 2A               [ 8] 1411 	ld	a, (hl+)
    0000063E 66               [ 8] 1412 	ld	h, (hl)
    0000063F 6F               [ 4] 1413 	ld	l, a
    00000640 36 3C            [12] 1414 	ld	(hl), #0x3c
                                   1415 ;src/rat.c:131: rats[i].cooldown_timer = 120; // Il cucciolo non si riproduce subito
    00000642 F8 02            [12] 1416 	ldhl	sp,#2
    00000644 2A               [ 8] 1417 	ld	a, (hl+)
    00000645 5F               [ 4] 1418 	ld	e, a
    00000646 56               [ 8] 1419 	ld	d, (hl)
    00000647 21 0A 00         [12] 1420 	ld	hl, #0x000a
    0000064A 19               [ 8] 1421 	add	hl, de
    0000064B E5               [16] 1422 	push	hl
    0000064C 7D               [ 4] 1423 	ld	a, l
    0000064D F8 0B            [12] 1424 	ldhl	sp,	#11
    0000064F 77               [ 8] 1425 	ld	(hl), a
    00000650 E1               [12] 1426 	pop	hl
    00000651 7C               [ 4] 1427 	ld	a, h
    00000652 F8 0A            [12] 1428 	ldhl	sp,	#10
    00000654 32               [ 8] 1429 	ld	(hl-), a
    00000655 2A               [ 8] 1430 	ld	a, (hl+)
    00000656 66               [ 8] 1431 	ld	h, (hl)
    00000657 6F               [ 4] 1432 	ld	l, a
    00000658 36 78            [12] 1433 	ld	(hl), #0x78
                                   1434 ;src/rat.c:132: rats[i].is_mother = 0;
    0000065A F8 02            [12] 1435 	ldhl	sp,#2
    0000065C 2A               [ 8] 1436 	ld	a, (hl+)
    0000065D 5F               [ 4] 1437 	ld	e, a
    0000065E 56               [ 8] 1438 	ld	d, (hl)
    0000065F 21 0B 00         [12] 1439 	ld	hl, #0x000b
    00000662 19               [ 8] 1440 	add	hl, de
    00000663 E5               [16] 1441 	push	hl
    00000664 7D               [ 4] 1442 	ld	a, l
    00000665 F8 0B            [12] 1443 	ldhl	sp,	#11
    00000667 77               [ 8] 1444 	ld	(hl), a
    00000668 E1               [12] 1445 	pop	hl
    00000669 7C               [ 4] 1446 	ld	a, h
    0000066A F8 0A            [12] 1447 	ldhl	sp,	#10
    0000066C 32               [ 8] 1448 	ld	(hl-), a
    0000066D 2A               [ 8] 1449 	ld	a, (hl+)
    0000066E 66               [ 8] 1450 	ld	h, (hl)
    0000066F 6F               [ 4] 1451 	ld	l, a
    00000670 36 00            [12] 1452 	ld	(hl), #0x00
                                   1453 ;src/rat.c:133: play_sfx_plop(); // Suono di nascita!
    00000672 CDr00r00         [24] 1454 	call	_play_sfx_plop
                                   1455 ;src/rat.c:136: for (uint8_t j = 0; j < MAX_RATS; j++) {
    00000675 F8 09            [12] 1456 	ldhl	sp,	#9
    00000677 AF               [ 4] 1457 	xor	a, a
    00000678 22               [ 8] 1458 	ld	(hl+), a
    00000679 77               [ 8] 1459 	ld	(hl), a
    0000067A                       1460 00166$:
    0000067A F8 0A            [12] 1461 	ldhl	sp,	#10
    0000067C 7E               [ 8] 1462 	ld	a, (hl)
    0000067D D6 0A            [ 8] 1463 	sub	a, #0x0a
    0000067F 30 32            [12] 1464 	jr	NC, 00135$
                                   1465 ;src/rat.c:137: if (rats[j].active) count++;
    00000681 4E               [ 8] 1466 	ld	c, (hl)
    00000682 06 00            [ 8] 1467 	ld	b, #0x00
    00000684 69               [ 4] 1468 	ld	l, c
    00000685 60               [ 4] 1469 	ld	h, b
    00000686 29               [ 8] 1470 	add	hl, hl
    00000687 09               [ 8] 1471 	add	hl, bc
    00000688 29               [ 8] 1472 	add	hl, hl
    00000689 29               [ 8] 1473 	add	hl, hl
    0000068A E5               [16] 1474 	push	hl
    0000068B 7D               [ 4] 1475 	ld	a, l
    0000068C F8 07            [12] 1476 	ldhl	sp,	#7
    0000068E 77               [ 8] 1477 	ld	(hl), a
    0000068F E1               [12] 1478 	pop	hl
    00000690 7C               [ 4] 1479 	ld	a, h
    00000691 F8 06            [12] 1480 	ldhl	sp,	#6
    00000693 32               [ 8] 1481 	ld	(hl-), a
    00000694 2A               [ 8] 1482 	ld	a, (hl+)
    00000695 5F               [ 4] 1483 	ld	e, a
    00000696 56               [ 8] 1484 	ld	d, (hl)
    00000697 21r00r00         [12] 1485 	ld	hl, #_rats
    0000069A 19               [ 8] 1486 	add	hl, de
    0000069B E5               [16] 1487 	push	hl
    0000069C 7D               [ 4] 1488 	ld	a, l
    0000069D F8 09            [12] 1489 	ldhl	sp,	#9
    0000069F 77               [ 8] 1490 	ld	(hl), a
    000006A0 E1               [12] 1491 	pop	hl
    000006A1 7C               [ 4] 1492 	ld	a, h
    000006A2 F8 08            [12] 1493 	ldhl	sp,	#8
    000006A4 32               [ 8] 1494 	ld	(hl-), a
    000006A5 2A               [ 8] 1495 	ld	a, (hl+)
    000006A6 5F               [ 4] 1496 	ld	e, a
    000006A7 56               [ 8] 1497 	ld	d, (hl)
    000006A8 1A               [ 8] 1498 	ld	a, (de)
    000006A9 B7               [ 4] 1499 	or	a, a
    000006AA 28 02            [12] 1500 	jr	Z, 00167$
    000006AC 23               [ 8] 1501 	inc	hl
    000006AD 34               [12] 1502 	inc	(hl)
    000006AE                       1503 00167$:
                                   1504 ;src/rat.c:136: for (uint8_t j = 0; j < MAX_RATS; j++) {
    000006AE F8 0A            [12] 1505 	ldhl	sp,	#10
    000006B0 34               [12] 1506 	inc	(hl)
    000006B1 18 C7            [12] 1507 	jr	00166$
    000006B3                       1508 00135$:
                                   1509 ;src/rat.c:139: if (count >= MAX_RATS) {
    000006B3 F8 09            [12] 1510 	ldhl	sp,	#9
    000006B5 7E               [ 8] 1511 	ld	a, (hl)
    000006B6 D6 0A            [ 8] 1512 	sub	a, #0x0a
    000006B8 38 10            [12] 1513 	jr	C, 00171$
                                   1514 ;src/rat.c:140: game_over_flag = 1;
    000006BA 21r00r00         [12] 1515 	ld	hl, #_game_over_flag
    000006BD 36 01            [12] 1516 	ld	(hl), #0x01
                                   1517 ;src/rat.c:142: break;
    000006BF 18 09            [12] 1518 	jr	00171$
    000006C1                       1519 00170$:
                                   1520 ;src/rat.c:84: for (uint8_t i = 0; i < MAX_RATS; i++) {
    000006C1 F8 0A            [12] 1521 	ldhl	sp,	#10
    000006C3 34               [12] 1522 	inc	(hl)
    000006C4 3A               [ 8] 1523 	ld	a, (hl-)
    000006C5 2B               [ 8] 1524 	dec	hl
    000006C6 77               [ 8] 1525 	ld	(hl), a
    000006C7 C3rEDr01         [16] 1526 	jp	00169$
    000006CA                       1527 00171$:
                                   1528 ;src/rat.c:145: }
    000006CA E8 0D            [16] 1529 	add	sp, #13
    000006CC E1               [12] 1530 	pop	hl
    000006CD 33               [ 8] 1531 	inc	sp
    000006CE E9               [ 4] 1532 	jp	(hl)
                                   1533 ;src/rat.c:147: void update_rats(void) {
                                   1534 ;	---------------------------------
                                   1535 ; Function update_rats
                                   1536 ; ---------------------------------
    000006CF                       1537 _update_rats::
    000006CF E8 C5            [16] 1538 	add	sp, #-59
                                   1539 ;src/rat.c:150: frame_counter++;
    000006D1 21r78r00         [12] 1540 	ld	hl, #_update_rats_frame_counter_10000_262
    000006D4 34               [12] 1541 	inc	(hl)
                                   1542 ;src/rat.c:151: uint8_t do_move = (frame_counter & 1); // Muovi di 1 pixel ogni 2 frame
    000006D5 7E               [ 8] 1543 	ld	a, (hl)
    000006D6 E6 01            [ 8] 1544 	and	a, #0x01
    000006D8 F8 24            [12] 1545 	ldhl	sp,	#36
    000006DA 77               [ 8] 1546 	ld	(hl), a
                                   1547 ;src/rat.c:155: for (uint8_t i = 0; i < MAX_RATS; i++) {
    000006DB F8 39            [12] 1548 	ldhl	sp,	#57
    000006DD AF               [ 4] 1549 	xor	a, a
    000006DE 22               [ 8] 1550 	ld	(hl+), a
    000006DF 77               [ 8] 1551 	ld	(hl), a
    000006E0                       1552 00266$:
    000006E0 F8 3A            [12] 1553 	ldhl	sp,	#58
    000006E2 7E               [ 8] 1554 	ld	a, (hl)
    000006E3 D6 0A            [ 8] 1555 	sub	a, #0x0a
    000006E5 30 32            [12] 1556 	jr	NC, 00103$
                                   1557 ;src/rat.c:156: if (rats[i].active) active_count++;
    000006E7 4E               [ 8] 1558 	ld	c, (hl)
    000006E8 06 00            [ 8] 1559 	ld	b, #0x00
    000006EA 69               [ 4] 1560 	ld	l, c
    000006EB 60               [ 4] 1561 	ld	h, b
    000006EC 29               [ 8] 1562 	add	hl, hl
    000006ED 09               [ 8] 1563 	add	hl, bc
    000006EE 29               [ 8] 1564 	add	hl, hl
    000006EF 29               [ 8] 1565 	add	hl, hl
    000006F0 E5               [16] 1566 	push	hl
    000006F1 7D               [ 4] 1567 	ld	a, l
    000006F2 F8 37            [12] 1568 	ldhl	sp,	#55
    000006F4 77               [ 8] 1569 	ld	(hl), a
    000006F5 E1               [12] 1570 	pop	hl
    000006F6 7C               [ 4] 1571 	ld	a, h
    000006F7 F8 36            [12] 1572 	ldhl	sp,	#54
    000006F9 32               [ 8] 1573 	ld	(hl-), a
    000006FA 2A               [ 8] 1574 	ld	a, (hl+)
    000006FB 5F               [ 4] 1575 	ld	e, a
    000006FC 56               [ 8] 1576 	ld	d, (hl)
    000006FD 21r00r00         [12] 1577 	ld	hl, #_rats
    00000700 19               [ 8] 1578 	add	hl, de
    00000701 E5               [16] 1579 	push	hl
    00000702 7D               [ 4] 1580 	ld	a, l
    00000703 F8 39            [12] 1581 	ldhl	sp,	#57
    00000705 77               [ 8] 1582 	ld	(hl), a
    00000706 E1               [12] 1583 	pop	hl
    00000707 7C               [ 4] 1584 	ld	a, h
    00000708 F8 38            [12] 1585 	ldhl	sp,	#56
    0000070A 32               [ 8] 1586 	ld	(hl-), a
    0000070B 2A               [ 8] 1587 	ld	a, (hl+)
    0000070C 5F               [ 4] 1588 	ld	e, a
    0000070D 56               [ 8] 1589 	ld	d, (hl)
    0000070E 1A               [ 8] 1590 	ld	a, (de)
    0000070F B7               [ 4] 1591 	or	a, a
    00000710 28 02            [12] 1592 	jr	Z, 00267$
    00000712 23               [ 8] 1593 	inc	hl
    00000713 34               [12] 1594 	inc	(hl)
    00000714                       1595 00267$:
                                   1596 ;src/rat.c:155: for (uint8_t i = 0; i < MAX_RATS; i++) {
    00000714 F8 3A            [12] 1597 	ldhl	sp,	#58
    00000716 34               [12] 1598 	inc	(hl)
    00000717 18 C7            [12] 1599 	jr	00266$
    00000719                       1600 00103$:
                                   1601 ;src/rat.c:159: if (active_count == 1) {
    00000719 F8 39            [12] 1602 	ldhl	sp,	#57
    0000071B 7E               [ 8] 1603 	ld	a, (hl)
    0000071C 3D               [ 4] 1604 	dec	a
    0000071D 20 73            [12] 1605 	jr	NZ, 00111$
                                   1606 ;src/rat.c:160: single_rat_timer++;
    0000071F 21r79r00         [12] 1607 	ld	hl, #_update_rats_single_rat_timer_10000_262
    00000722 34               [12] 1608 	inc	(hl)
    00000723 20 02            [12] 1609 	jr	NZ, 00812$
    00000725 23               [ 8] 1610 	inc	hl
    00000726 34               [12] 1611 	inc	(hl)
    00000727                       1612 00812$:
                                   1613 ;src/rat.c:161: if (single_rat_timer >= 600) { // 10 secondi a 60 fps
    00000727 FAr79r00         [16] 1614 	ld	a, (_update_rats_single_rat_timer_10000_262)
    0000072A 4F               [ 4] 1615 	ld	c, a
    0000072B 21r7Ar00         [12] 1616 	ld	hl, #_update_rats_single_rat_timer_10000_262 + 1
    0000072E 46               [ 8] 1617 	ld	b, (hl)
    0000072F 79               [ 4] 1618 	ld	a, c
    00000730 D6 58            [ 8] 1619 	sub	a, #0x58
    00000732 78               [ 4] 1620 	ld	a, b
    00000733 DE 02            [ 8] 1621 	sbc	a, #0x02
    00000735 38 61            [12] 1622 	jr	C, 00294$
                                   1623 ;src/rat.c:162: single_rat_timer = 0;
    00000737 2B               [ 8] 1624 	dec	hl
    00000738 AF               [ 4] 1625 	xor	a, a
    00000739 22               [ 8] 1626 	ld	(hl+), a
    0000073A 77               [ 8] 1627 	ld	(hl), a
                                   1628 ;src/rat.c:164: for(uint8_t s = 0; s < 2; s++) {
    0000073B 0E 00            [ 8] 1629 	ld	c, #0x00
    0000073D                       1630 00269$:
    0000073D 79               [ 4] 1631 	ld	a, c
    0000073E D6 02            [ 8] 1632 	sub	a, #0x02
    00000740 30 56            [12] 1633 	jr	NC, 00294$
                                   1634 ;src/rat.c:166: do {
    00000742                       1635 00104$:
                                   1636 ;src/rat.c:167: rx = rand() % MAZE_WIDTH;
    00000742 CDr00r00         [24] 1637 	call	_rand
    00000745 7B               [ 4] 1638 	ld	a, e
    00000746 C5               [16] 1639 	push	bc
    00000747 1E 13            [ 8] 1640 	ld	e, #0x13
    00000749 CDr00r00         [24] 1641 	call	__moduchar
    0000074C 79               [ 4] 1642 	ld	a, c
    0000074D C1               [12] 1643 	pop	bc
    0000074E F8 39            [12] 1644 	ldhl	sp,	#57
    00000750 77               [ 8] 1645 	ld	(hl), a
                                   1646 ;src/rat.c:168: ry = rand() % MAZE_HEIGHT;
    00000751 CDr00r00         [24] 1647 	call	_rand
    00000754 7B               [ 4] 1648 	ld	a, e
    00000755 C5               [16] 1649 	push	bc
    00000756 1E 11            [ 8] 1650 	ld	e, #0x11
    00000758 CDr00r00         [24] 1651 	call	__moduchar
    0000075B 79               [ 4] 1652 	ld	a, c
    0000075C C1               [12] 1653 	pop	bc
    0000075D F8 3A            [12] 1654 	ldhl	sp,	#58
    0000075F 77               [ 8] 1655 	ld	(hl), a
                                   1656 ;src/rat.c:169: } while(maze[ry][rx] != 0);
    00000760 46               [ 8] 1657 	ld	b, (hl)
    00000761 AF               [ 4] 1658 	xor	a, a
    00000762 68               [ 4] 1659 	ld	l, b
    00000763 67               [ 4] 1660 	ld	h, a
    00000764 29               [ 8] 1661 	add	hl, hl
    00000765 29               [ 8] 1662 	add	hl, hl
    00000766 29               [ 8] 1663 	add	hl, hl
    00000767 29               [ 8] 1664 	add	hl, hl
    00000768 29               [ 8] 1665 	add	hl, hl
    00000769 7D               [ 4] 1666 	ld	a, l
    0000076A C6r00            [ 8] 1667 	add	a, #<(_maze)
    0000076C 5F               [ 4] 1668 	ld	e, a
    0000076D 7C               [ 4] 1669 	ld	a, h
    0000076E CEs00            [ 8] 1670 	adc	a, #>(_maze)
    00000770 57               [ 4] 1671 	ld	d, a
    00000771 F8 39            [12] 1672 	ldhl	sp,	#57
    00000773 6E               [ 8] 1673 	ld	l, (hl)
    00000774 26 00            [ 8] 1674 	ld	h, #0x00
    00000776 19               [ 8] 1675 	add	hl, de
    00000777 5D               [ 4] 1676 	ld	e, l
    00000778 54               [ 4] 1677 	ld	d, h
    00000779 1A               [ 8] 1678 	ld	a, (de)
    0000077A B7               [ 4] 1679 	or	a, a
    0000077B 20 C5            [12] 1680 	jr	NZ, 00104$
                                   1681 ;src/rat.c:170: spawn_rat(rx, ry, rand() % 4);
    0000077D CDr00r00         [24] 1682 	call	_rand
    00000780 7B               [ 4] 1683 	ld	a, e
    00000781 E6 03            [ 8] 1684 	and	a, #0x03
    00000783 C5               [16] 1685 	push	bc
    00000784 F5               [16] 1686 	push	af
    00000785 33               [ 8] 1687 	inc	sp
    00000786 F8 3D            [12] 1688 	ldhl	sp,	#61
    00000788 3A               [ 8] 1689 	ld	a, (hl-)
    00000789 5F               [ 4] 1690 	ld	e, a
    0000078A 7E               [ 8] 1691 	ld	a, (hl)
    0000078B CDrE0r01         [24] 1692 	call	_spawn_rat
    0000078E C1               [12] 1693 	pop	bc
                                   1694 ;src/rat.c:164: for(uint8_t s = 0; s < 2; s++) {
    0000078F 0C               [ 4] 1695 	inc	c
    00000790 18 AB            [12] 1696 	jr	00269$
    00000792                       1697 00111$:
                                   1698 ;src/rat.c:174: single_rat_timer = 0;
    00000792 AF               [ 4] 1699 	xor	a, a
    00000793 21r79r00         [12] 1700 	ld	hl, #_update_rats_single_rat_timer_10000_262
    00000796 22               [ 8] 1701 	ld	(hl+), a
    00000797 77               [ 8] 1702 	ld	(hl), a
                                   1703 ;src/rat.c:184: for (uint8_t i = 0; i < 16; i++) head[i] = 255;
    00000798                       1704 00294$:
    00000798 F8 02            [12] 1705 	ldhl	sp,	#2
    0000079A 5D               [ 4] 1706 	ld	e, l
    0000079B 54               [ 4] 1707 	ld	d, h
    0000079C 0E 00            [ 8] 1708 	ld	c, #0x00
    0000079E                       1709 00272$:
    0000079E 79               [ 4] 1710 	ld	a, c
    0000079F D6 10            [ 8] 1711 	sub	a, #0x10
    000007A1 30 09            [12] 1712 	jr	NC, 00113$
    000007A3 69               [ 4] 1713 	ld	l, c
    000007A4 26 00            [ 8] 1714 	ld	h, #0x00
    000007A6 19               [ 8] 1715 	add	hl, de
    000007A7 36 FF            [12] 1716 	ld	(hl), #0xff
    000007A9 0C               [ 4] 1717 	inc	c
    000007AA 18 F2            [12] 1718 	jr	00272$
    000007AC                       1719 00113$:
                                   1720 ;src/rat.c:187: for (uint8_t i = 0; i < MAX_RATS; i++) {
    000007AC F8 3A            [12] 1721 	ldhl	sp,	#58
    000007AE 36 00            [12] 1722 	ld	(hl), #0x00
    000007B0                       1723 00275$:
    000007B0 F8 3A            [12] 1724 	ldhl	sp,	#58
    000007B2 7E               [ 8] 1725 	ld	a, (hl)
    000007B3 D6 0A            [ 8] 1726 	sub	a, #0x0a
    000007B5 D2r4Br08         [16] 1727 	jp	NC, 00119$
                                   1728 ;src/rat.c:188: if (!rats[i].active || rats[i].reproduce_timer > 0 || rats[i].cooldown_timer > 0) {
    000007B8 4E               [ 8] 1729 	ld	c, (hl)
    000007B9 06 00            [ 8] 1730 	ld	b, #0x00
    000007BB 69               [ 4] 1731 	ld	l, c
    000007BC 60               [ 4] 1732 	ld	h, b
    000007BD 29               [ 8] 1733 	add	hl, hl
    000007BE 09               [ 8] 1734 	add	hl, bc
    000007BF 29               [ 8] 1735 	add	hl, hl
    000007C0 29               [ 8] 1736 	add	hl, hl
    000007C1 01r00r00         [12] 1737 	ld	bc, #_rats
    000007C4 09               [ 8] 1738 	add	hl, bc
    000007C5 E5               [16] 1739 	push	hl
    000007C6 7D               [ 4] 1740 	ld	a, l
    000007C7 F8 38            [12] 1741 	ldhl	sp,	#56
    000007C9 77               [ 8] 1742 	ld	(hl), a
    000007CA E1               [12] 1743 	pop	hl
    000007CB 7C               [ 4] 1744 	ld	a, h
    000007CC F8 37            [12] 1745 	ldhl	sp,	#55
    000007CE 32               [ 8] 1746 	ld	(hl-), a
    000007CF 2A               [ 8] 1747 	ld	a, (hl+)
    000007D0 5F               [ 4] 1748 	ld	e, a
    000007D1 56               [ 8] 1749 	ld	d, (hl)
    000007D2 1A               [ 8] 1750 	ld	a, (de)
    000007D3 B7               [ 4] 1751 	or	a, a
    000007D4 28 29            [12] 1752 	jr	Z, 00114$
    000007D6 2B               [ 8] 1753 	dec	hl
    000007D7 2A               [ 8] 1754 	ld	a, (hl+)
    000007D8 5F               [ 4] 1755 	ld	e, a
    000007D9 56               [ 8] 1756 	ld	d, (hl)
    000007DA 21 09 00         [12] 1757 	ld	hl, #0x0009
    000007DD 19               [ 8] 1758 	add	hl, de
    000007DE E5               [16] 1759 	push	hl
    000007DF 7D               [ 4] 1760 	ld	a, l
    000007E0 F8 3A            [12] 1761 	ldhl	sp,	#58
    000007E2 77               [ 8] 1762 	ld	(hl), a
    000007E3 E1               [12] 1763 	pop	hl
    000007E4 7C               [ 4] 1764 	ld	a, h
    000007E5 F8 39            [12] 1765 	ldhl	sp,	#57
    000007E7 32               [ 8] 1766 	ld	(hl-), a
    000007E8 2A               [ 8] 1767 	ld	a, (hl+)
    000007E9 5F               [ 4] 1768 	ld	e, a
    000007EA 56               [ 8] 1769 	ld	d, (hl)
    000007EB 1A               [ 8] 1770 	ld	a, (de)
    000007EC B7               [ 4] 1771 	or	a, a
    000007ED 20 10            [12] 1772 	jr	NZ, 00114$
    000007EF 2B               [ 8] 1773 	dec	hl
    000007F0 2B               [ 8] 1774 	dec	hl
    000007F1 2B               [ 8] 1775 	dec	hl
    000007F2 2A               [ 8] 1776 	ld	a, (hl+)
    000007F3 5F               [ 4] 1777 	ld	e, a
    000007F4 56               [ 8] 1778 	ld	d, (hl)
    000007F5 21 0A 00         [12] 1779 	ld	hl, #0x000a
    000007F8 19               [ 8] 1780 	add	hl, de
    000007F9 4D               [ 4] 1781 	ld	c, l
    000007FA 44               [ 4] 1782 	ld	b, h
    000007FB 0A               [ 8] 1783 	ld	a, (bc)
    000007FC B7               [ 4] 1784 	or	a, a
    000007FD 28 12            [12] 1785 	jr	Z, 00115$
    000007FF                       1786 00114$:
                                   1787 ;src/rat.c:189: next_rat[i] = 255;
    000007FF E5               [16] 1788 	push	hl
    00000800 21 14 00         [12] 1789 	ld	hl, #20
    00000803 39               [ 8] 1790 	add	hl, sp
    00000804 5D               [ 4] 1791 	ld	e, l
    00000805 54               [ 4] 1792 	ld	d, h
    00000806 E1               [12] 1793 	pop	hl
    00000807 F8 3A            [12] 1794 	ldhl	sp,	#58
    00000809 6E               [ 8] 1795 	ld	l, (hl)
    0000080A 26 00            [ 8] 1796 	ld	h, #0x00
    0000080C 19               [ 8] 1797 	add	hl, de
    0000080D 36 FF            [12] 1798 	ld	(hl), #0xff
                                   1799 ;src/rat.c:190: continue;
    0000080F 18 34            [12] 1800 	jr	00118$
    00000811                       1801 00115$:
                                   1802 ;src/rat.c:192: uint8_t h = (rats[i].rat_x ^ rats[i].rat_y) & 15; // Hash velocissimo
    00000811 F8 36            [12] 1803 	ldhl	sp,	#54
    00000813 2A               [ 8] 1804 	ld	a, (hl+)
    00000814 4F               [ 4] 1805 	ld	c, a
    00000815 3A               [ 8] 1806 	ld	a, (hl-)
    00000816 47               [ 4] 1807 	ld	b, a
    00000817 03               [ 8] 1808 	inc	bc
    00000818 0A               [ 8] 1809 	ld	a, (bc)
    00000819 5E               [ 8] 1810 	ld	e, (hl)
    0000081A 23               [ 8] 1811 	inc	hl
    0000081B 66               [ 8] 1812 	ld	h, (hl)
    0000081C 6B               [ 4] 1813 	ld	l, e
    0000081D 23               [ 8] 1814 	inc	hl
    0000081E 23               [ 8] 1815 	inc	hl
    0000081F 4E               [ 8] 1816 	ld	c, (hl)
    00000820 A9               [ 4] 1817 	xor	a, c
    00000821 E6 0F            [ 8] 1818 	and	a, #0x0f
    00000823 5F               [ 4] 1819 	ld	e, a
                                   1820 ;src/rat.c:193: next_rat[i] = head[h];
    00000824 D5               [16] 1821 	push	de
    00000825 E5               [16] 1822 	push	hl
    00000826 21 16 00         [12] 1823 	ld	hl, #22
    00000829 39               [ 8] 1824 	add	hl, sp
    0000082A 5D               [ 4] 1825 	ld	e, l
    0000082B 54               [ 4] 1826 	ld	d, h
    0000082C E1               [12] 1827 	pop	hl
    0000082D F8 3C            [12] 1828 	ldhl	sp,	#60
    0000082F 6E               [ 8] 1829 	ld	l, (hl)
    00000830 26 00            [ 8] 1830 	ld	h, #0x00
    00000832 19               [ 8] 1831 	add	hl, de
    00000833 D1               [12] 1832 	pop	de
    00000834 4D               [ 4] 1833 	ld	c, l
    00000835 44               [ 4] 1834 	ld	b, h
    00000836 16 00            [ 8] 1835 	ld	d, #0x00
    00000838 21 02 00         [12] 1836 	ld	hl, #2
    0000083B 39               [ 8] 1837 	add	hl, sp
    0000083C 19               [ 8] 1838 	add	hl, de
    0000083D 5D               [ 4] 1839 	ld	e, l
    0000083E 54               [ 4] 1840 	ld	d, h
    0000083F 1A               [ 8] 1841 	ld	a, (de)
    00000840 02               [ 8] 1842 	ld	(bc), a
                                   1843 ;src/rat.c:194: head[h] = i;
    00000841 F8 3A            [12] 1844 	ldhl	sp,	#58
    00000843 7E               [ 8] 1845 	ld	a, (hl)
    00000844 12               [ 8] 1846 	ld	(de), a
    00000845                       1847 00118$:
                                   1848 ;src/rat.c:187: for (uint8_t i = 0; i < MAX_RATS; i++) {
    00000845 F8 3A            [12] 1849 	ldhl	sp,	#58
    00000847 34               [12] 1850 	inc	(hl)
    00000848 C3rB0r07         [16] 1851 	jp	00275$
    0000084B                       1852 00119$:
                                   1853 ;src/rat.c:198: for (uint8_t i = 0; i < MAX_RATS; i++) {
    0000084B 0E 00            [ 8] 1854 	ld	c, #0x00
    0000084D                       1855 00277$:
    0000084D 79               [ 4] 1856 	ld	a, c
    0000084E D6 0A            [ 8] 1857 	sub	a, #0x0a
    00000850 D2r86r09         [16] 1858 	jp	NC, 00133$
                                   1859 ;src/rat.c:199: if (!rats[i].active || rats[i].reproduce_timer > 0 || rats[i].cooldown_timer > 0) continue;
    00000853 06 00            [ 8] 1860 	ld	b, #0x00
    00000855 69               [ 4] 1861 	ld	l, c
    00000856 60               [ 4] 1862 	ld	h, b
    00000857 29               [ 8] 1863 	add	hl, hl
    00000858 09               [ 8] 1864 	add	hl, bc
    00000859 29               [ 8] 1865 	add	hl, hl
    0000085A 29               [ 8] 1866 	add	hl, hl
    0000085B E5               [16] 1867 	push	hl
    0000085C 7D               [ 4] 1868 	ld	a, l
    0000085D F8 3B            [12] 1869 	ldhl	sp,	#59
    0000085F 77               [ 8] 1870 	ld	(hl), a
    00000860 E1               [12] 1871 	pop	hl
    00000861 7C               [ 4] 1872 	ld	a, h
    00000862 F8 3A            [12] 1873 	ldhl	sp,	#58
    00000864 32               [ 8] 1874 	ld	(hl-), a
    00000865 2A               [ 8] 1875 	ld	a, (hl+)
    00000866 5F               [ 4] 1876 	ld	e, a
    00000867 56               [ 8] 1877 	ld	d, (hl)
    00000868 21r00r00         [12] 1878 	ld	hl, #_rats
    0000086B 19               [ 8] 1879 	add	hl, de
    0000086C E5               [16] 1880 	push	hl
    0000086D 7D               [ 4] 1881 	ld	a, l
    0000086E F8 34            [12] 1882 	ldhl	sp,	#52
    00000870 77               [ 8] 1883 	ld	(hl), a
    00000871 E1               [12] 1884 	pop	hl
    00000872 7C               [ 4] 1885 	ld	a, h
    00000873 F8 33            [12] 1886 	ldhl	sp,	#51
    00000875 32               [ 8] 1887 	ld	(hl-), a
    00000876 2A               [ 8] 1888 	ld	a, (hl+)
    00000877 5F               [ 4] 1889 	ld	e, a
    00000878 56               [ 8] 1890 	ld	d, (hl)
    00000879 1A               [ 8] 1891 	ld	a, (de)
    0000087A B7               [ 4] 1892 	or	a, a
    0000087B CAr82r09         [16] 1893 	jp	Z, 00132$
    0000087E 2B               [ 8] 1894 	dec	hl
    0000087F 2A               [ 8] 1895 	ld	a, (hl+)
    00000880 5F               [ 4] 1896 	ld	e, a
    00000881 56               [ 8] 1897 	ld	d, (hl)
    00000882 21 09 00         [12] 1898 	ld	hl, #0x0009
    00000885 19               [ 8] 1899 	add	hl, de
    00000886 E5               [16] 1900 	push	hl
    00000887 7D               [ 4] 1901 	ld	a, l
    00000888 F8 36            [12] 1902 	ldhl	sp,	#54
    0000088A 77               [ 8] 1903 	ld	(hl), a
    0000088B E1               [12] 1904 	pop	hl
    0000088C 7C               [ 4] 1905 	ld	a, h
    0000088D F8 35            [12] 1906 	ldhl	sp,	#53
    0000088F 32               [ 8] 1907 	ld	(hl-), a
    00000890 2A               [ 8] 1908 	ld	a, (hl+)
    00000891 5F               [ 4] 1909 	ld	e, a
    00000892 56               [ 8] 1910 	ld	d, (hl)
    00000893 1A               [ 8] 1911 	ld	a, (de)
    00000894 B7               [ 4] 1912 	or	a, a
    00000895 C2r82r09         [16] 1913 	jp	NZ, 00132$
    00000898 2B               [ 8] 1914 	dec	hl
    00000899 2B               [ 8] 1915 	dec	hl
    0000089A 2B               [ 8] 1916 	dec	hl
    0000089B 2A               [ 8] 1917 	ld	a, (hl+)
    0000089C 5F               [ 4] 1918 	ld	e, a
    0000089D 56               [ 8] 1919 	ld	d, (hl)
    0000089E 21 0A 00         [12] 1920 	ld	hl, #0x000a
    000008A1 19               [ 8] 1921 	add	hl, de
    000008A2 5D               [ 4] 1922 	ld	e, l
    000008A3 54               [ 4] 1923 	ld	d, h
    000008A4 1A               [ 8] 1924 	ld	a, (de)
    000008A5 B7               [ 4] 1925 	or	a, a
    000008A6 C2r82r09         [16] 1926 	jp	NZ, 00132$
                                   1927 ;src/rat.c:202: uint8_t j = next_rat[i]; 
    000008A9 59               [ 4] 1928 	ld	e, c
    000008AA 16 00            [ 8] 1929 	ld	d, #0x00
    000008AC 21 12 00         [12] 1930 	ld	hl, #18
    000008AF 39               [ 8] 1931 	add	hl, sp
    000008B0 19               [ 8] 1932 	add	hl, de
    000008B1 46               [ 8] 1933 	ld	b, (hl)
                                   1934 ;src/rat.c:203: while (j != 255) {
    000008B2                       1935 00129$:
    000008B2 78               [ 4] 1936 	ld	a, b
    000008B3 3C               [ 4] 1937 	inc	a
    000008B4 CAr82r09         [16] 1938 	jp	Z, 00132$
                                   1939 ;src/rat.c:204: if (rats[i].rat_x == rats[j].rat_x && rats[i].rat_y == rats[j].rat_y &&
    000008B7 F8 32            [12] 1940 	ldhl	sp,	#50
    000008B9 2A               [ 8] 1941 	ld	a, (hl+)
    000008BA 5F               [ 4] 1942 	ld	e, a
    000008BB 56               [ 8] 1943 	ld	d, (hl)
    000008BC 13               [ 8] 1944 	inc	de
    000008BD 1A               [ 8] 1945 	ld	a, (de)
    000008BE F8 36            [12] 1946 	ldhl	sp,	#54
    000008C0 77               [ 8] 1947 	ld	(hl), a
    000008C1 58               [ 4] 1948 	ld	e, b
    000008C2 16 00            [ 8] 1949 	ld	d, #0x00
    000008C4 6B               [ 4] 1950 	ld	l, e
    000008C5 62               [ 4] 1951 	ld	h, d
    000008C6 29               [ 8] 1952 	add	hl, hl
    000008C7 19               [ 8] 1953 	add	hl, de
    000008C8 29               [ 8] 1954 	add	hl, hl
    000008C9 29               [ 8] 1955 	add	hl, hl
    000008CA E5               [16] 1956 	push	hl
    000008CB 7D               [ 4] 1957 	ld	a, l
    000008CC F8 39            [12] 1958 	ldhl	sp,	#57
    000008CE 77               [ 8] 1959 	ld	(hl), a
    000008CF E1               [12] 1960 	pop	hl
    000008D0 7C               [ 4] 1961 	ld	a, h
    000008D1 F8 38            [12] 1962 	ldhl	sp,	#56
    000008D3 77               [ 8] 1963 	ld	(hl), a
    000008D4 11r00r00         [12] 1964 	ld	de, #_rats
    000008D7 3A               [ 8] 1965 	ld	a, (hl-)
    000008D8 6E               [ 8] 1966 	ld	l, (hl)
    000008D9 67               [ 4] 1967 	ld	h, a
    000008DA 19               [ 8] 1968 	add	hl, de
    000008DB E5               [16] 1969 	push	hl
    000008DC 7D               [ 4] 1970 	ld	a, l
    000008DD F8 3B            [12] 1971 	ldhl	sp,	#59
    000008DF 77               [ 8] 1972 	ld	(hl), a
    000008E0 E1               [12] 1973 	pop	hl
    000008E1 7C               [ 4] 1974 	ld	a, h
    000008E2 F8 3A            [12] 1975 	ldhl	sp,	#58
    000008E4 32               [ 8] 1976 	ld	(hl-), a
    000008E5 2A               [ 8] 1977 	ld	a, (hl+)
    000008E6 66               [ 8] 1978 	ld	h, (hl)
    000008E7 6F               [ 4] 1979 	ld	l, a
    000008E8 23               [ 8] 1980 	inc	hl
    000008E9 5E               [ 8] 1981 	ld	e, (hl)
    000008EA F8 36            [12] 1982 	ldhl	sp,	#54
    000008EC 7E               [ 8] 1983 	ld	a, (hl)
    000008ED 93               [ 4] 1984 	sub	a, e
    000008EE C2r76r09         [16] 1985 	jp	NZ, 00125$
    000008F1 F8 32            [12] 1986 	ldhl	sp,	#50
    000008F3 2A               [ 8] 1987 	ld	a, (hl+)
    000008F4 5F               [ 4] 1988 	ld	e, a
    000008F5 56               [ 8] 1989 	ld	d, (hl)
    000008F6 13               [ 8] 1990 	inc	de
    000008F7 13               [ 8] 1991 	inc	de
    000008F8 1A               [ 8] 1992 	ld	a, (de)
    000008F9 F8 39            [12] 1993 	ldhl	sp,	#57
    000008FB 5E               [ 8] 1994 	ld	e, (hl)
    000008FC 23               [ 8] 1995 	inc	hl
    000008FD 66               [ 8] 1996 	ld	h, (hl)
    000008FE 6B               [ 4] 1997 	ld	l, e
    000008FF 23               [ 8] 1998 	inc	hl
    00000900 23               [ 8] 1999 	inc	hl
    00000901 5E               [ 8] 2000 	ld	e, (hl)
    00000902 93               [ 4] 2001 	sub	a, e
    00000903 20 71            [12] 2002 	jr	NZ, 00125$
                                   2003 ;src/rat.c:205: rats[i].pixel_x == rats[j].pixel_x && rats[i].pixel_y == rats[j].pixel_y) {
    00000905 F8 32            [12] 2004 	ldhl	sp,#50
    00000907 2A               [ 8] 2005 	ld	a, (hl+)
    00000908 5F               [ 4] 2006 	ld	e, a
    00000909 56               [ 8] 2007 	ld	d, (hl)
    0000090A 21 05 00         [12] 2008 	ld	hl, #0x0005
    0000090D 19               [ 8] 2009 	add	hl, de
    0000090E 5D               [ 4] 2010 	ld	e, l
    0000090F 54               [ 4] 2011 	ld	d, h
    00000910 1A               [ 8] 2012 	ld	a, (de)
    00000911 F8 38            [12] 2013 	ldhl	sp,	#56
    00000913 22               [ 8] 2014 	ld	(hl+), a
    00000914 2A               [ 8] 2015 	ld	a, (hl+)
    00000915 5F               [ 4] 2016 	ld	e, a
    00000916 56               [ 8] 2017 	ld	d, (hl)
    00000917 21 05 00         [12] 2018 	ld	hl, #0x0005
    0000091A 19               [ 8] 2019 	add	hl, de
    0000091B 5D               [ 4] 2020 	ld	e, l
    0000091C 54               [ 4] 2021 	ld	d, h
    0000091D 1A               [ 8] 2022 	ld	a, (de)
    0000091E 5F               [ 4] 2023 	ld	e, a
    0000091F F8 38            [12] 2024 	ldhl	sp,	#56
    00000921 7E               [ 8] 2025 	ld	a, (hl)
    00000922 93               [ 4] 2026 	sub	a, e
    00000923 20 51            [12] 2027 	jr	NZ, 00125$
    00000925 F8 32            [12] 2028 	ldhl	sp,#50
    00000927 2A               [ 8] 2029 	ld	a, (hl+)
    00000928 5F               [ 4] 2030 	ld	e, a
    00000929 56               [ 8] 2031 	ld	d, (hl)
    0000092A 21 06 00         [12] 2032 	ld	hl, #0x0006
    0000092D 19               [ 8] 2033 	add	hl, de
    0000092E 5D               [ 4] 2034 	ld	e, l
    0000092F 54               [ 4] 2035 	ld	d, h
    00000930 1A               [ 8] 2036 	ld	a, (de)
    00000931 F8 38            [12] 2037 	ldhl	sp,	#56
    00000933 22               [ 8] 2038 	ld	(hl+), a
    00000934 2A               [ 8] 2039 	ld	a, (hl+)
    00000935 5F               [ 4] 2040 	ld	e, a
    00000936 56               [ 8] 2041 	ld	d, (hl)
    00000937 21 06 00         [12] 2042 	ld	hl, #0x0006
    0000093A 19               [ 8] 2043 	add	hl, de
    0000093B 5D               [ 4] 2044 	ld	e, l
    0000093C 54               [ 4] 2045 	ld	d, h
    0000093D 1A               [ 8] 2046 	ld	a, (de)
    0000093E 5F               [ 4] 2047 	ld	e, a
    0000093F F8 38            [12] 2048 	ldhl	sp,	#56
    00000941 7E               [ 8] 2049 	ld	a, (hl)
    00000942 93               [ 4] 2050 	sub	a, e
    00000943 20 31            [12] 2051 	jr	NZ, 00125$
                                   2052 ;src/rat.c:209: rats[i].reproduce_timer = 64; 
    00000945 F8 34            [12] 2053 	ldhl	sp,	#52
    00000947 2A               [ 8] 2054 	ld	a, (hl+)
    00000948 66               [ 8] 2055 	ld	h, (hl)
    00000949 6F               [ 4] 2056 	ld	l, a
    0000094A 36 40            [12] 2057 	ld	(hl), #0x40
                                   2058 ;src/rat.c:210: rats[j].reproduce_timer = 64;
    0000094C F8 39            [12] 2059 	ldhl	sp,#57
    0000094E 2A               [ 8] 2060 	ld	a, (hl+)
    0000094F 5F               [ 4] 2061 	ld	e, a
    00000950 56               [ 8] 2062 	ld	d, (hl)
    00000951 21 09 00         [12] 2063 	ld	hl, #0x0009
    00000954 19               [ 8] 2064 	add	hl, de
    00000955 36 40            [12] 2065 	ld	(hl), #0x40
                                   2066 ;src/rat.c:211: rats[i].is_mother = 1; // Solo i farà spawnare il cucciolo
    00000957 F8 32            [12] 2067 	ldhl	sp,#50
    00000959 2A               [ 8] 2068 	ld	a, (hl+)
    0000095A 5F               [ 4] 2069 	ld	e, a
    0000095B 56               [ 8] 2070 	ld	d, (hl)
    0000095C 21 0B 00         [12] 2071 	ld	hl, #0x000b
    0000095F 19               [ 8] 2072 	add	hl, de
    00000960 36 01            [12] 2073 	ld	(hl), #0x01
                                   2074 ;src/rat.c:212: rats[j].is_mother = 0;
    00000962 F8 39            [12] 2075 	ldhl	sp,#57
    00000964 2A               [ 8] 2076 	ld	a, (hl+)
    00000965 5F               [ 4] 2077 	ld	e, a
    00000966 56               [ 8] 2078 	ld	d, (hl)
    00000967 21 0B 00         [12] 2079 	ld	hl, #0x000b
    0000096A 19               [ 8] 2080 	add	hl, de
    0000096B 5D               [ 4] 2081 	ld	e, l
    0000096C 54               [ 4] 2082 	ld	d, h
    0000096D AF               [ 4] 2083 	xor	a, a
    0000096E 12               [ 8] 2084 	ld	(de), a
                                   2085 ;src/rat.c:213: play_sfx_moan(); // Suono d'amore
    0000096F C5               [16] 2086 	push	bc
    00000970 CDr00r00         [24] 2087 	call	_play_sfx_moan
    00000973 C1               [12] 2088 	pop	bc
                                   2089 ;src/rat.c:214: break;
    00000974 18 0C            [12] 2090 	jr	00132$
    00000976                       2091 00125$:
                                   2092 ;src/rat.c:216: j = next_rat[j]; // Passa al prossimo topo nello stesso bucket
    00000976 58               [ 4] 2093 	ld	e, b
    00000977 16 00            [ 8] 2094 	ld	d, #0x00
    00000979 21 12 00         [12] 2095 	ld	hl, #18
    0000097C 39               [ 8] 2096 	add	hl, sp
    0000097D 19               [ 8] 2097 	add	hl, de
    0000097E 46               [ 8] 2098 	ld	b, (hl)
    0000097F C3rB2r08         [16] 2099 	jp	00129$
    00000982                       2100 00132$:
                                   2101 ;src/rat.c:198: for (uint8_t i = 0; i < MAX_RATS; i++) {
    00000982 0C               [ 4] 2102 	inc	c
    00000983 C3r4Dr08         [16] 2103 	jp	00277$
    00000986                       2104 00133$:
                                   2105 ;src/rat.c:221: for (uint8_t i = 0; i < MAX_RATS; i++) {
    00000986 F8 38            [12] 2106 	ldhl	sp,	#56
    00000988 36 00            [12] 2107 	ld	(hl), #0x00
    0000098A                       2108 00282$:
    0000098A F8 38            [12] 2109 	ldhl	sp,	#56
    0000098C 7E               [ 8] 2110 	ld	a, (hl)
    0000098D D6 0A            [ 8] 2111 	sub	a, #0x0a
    0000098F D2r0Ar14         [16] 2112 	jp	NC, 00283$
                                   2113 ;src/rat.c:222: Rat* r = &rats[i];
    00000992 4E               [ 8] 2114 	ld	c, (hl)
    00000993 06 00            [ 8] 2115 	ld	b, #0x00
    00000995 69               [ 4] 2116 	ld	l, c
    00000996 60               [ 4] 2117 	ld	h, b
    00000997 29               [ 8] 2118 	add	hl, hl
    00000998 09               [ 8] 2119 	add	hl, bc
    00000999 29               [ 8] 2120 	add	hl, hl
    0000099A 29               [ 8] 2121 	add	hl, hl
    0000099B E5               [16] 2122 	push	hl
    0000099C 7D               [ 4] 2123 	ld	a, l
    0000099D F8 38            [12] 2124 	ldhl	sp,	#56
    0000099F 77               [ 8] 2125 	ld	(hl), a
    000009A0 E1               [12] 2126 	pop	hl
    000009A1 7C               [ 4] 2127 	ld	a, h
    000009A2 F8 37            [12] 2128 	ldhl	sp,	#55
    000009A4 32               [ 8] 2129 	ld	(hl-), a
    000009A5 2A               [ 8] 2130 	ld	a, (hl+)
    000009A6 5F               [ 4] 2131 	ld	e, a
    000009A7 56               [ 8] 2132 	ld	d, (hl)
    000009A8 21r00r00         [12] 2133 	ld	hl, #_rats
    000009AB 19               [ 8] 2134 	add	hl, de
    000009AC E5               [16] 2135 	push	hl
    000009AD 7D               [ 4] 2136 	ld	a, l
    000009AE F8 3B            [12] 2137 	ldhl	sp,	#59
    000009B0 77               [ 8] 2138 	ld	(hl), a
    000009B1 E1               [12] 2139 	pop	hl
    000009B2 7C               [ 4] 2140 	ld	a, h
    000009B3 F8 3A            [12] 2141 	ldhl	sp,	#58
    000009B5 32               [ 8] 2142 	ld	(hl-), a
    000009B6 7E               [ 8] 2143 	ld	a, (hl)
    000009B7 F8 25            [12] 2144 	ldhl	sp,	#37
    000009B9 77               [ 8] 2145 	ld	(hl), a
    000009BA F8 3A            [12] 2146 	ldhl	sp,	#58
    000009BC 7E               [ 8] 2147 	ld	a, (hl)
    000009BD F8 26            [12] 2148 	ldhl	sp,	#38
                                   2149 ;src/rat.c:223: if (!r->active) continue;
    000009BF 32               [ 8] 2150 	ld	(hl-), a
    000009C0 2A               [ 8] 2151 	ld	a, (hl+)
    000009C1 5F               [ 4] 2152 	ld	e, a
    000009C2 56               [ 8] 2153 	ld	d, (hl)
    000009C3 1A               [ 8] 2154 	ld	a, (de)
    000009C4 F8 3A            [12] 2155 	ldhl	sp,	#58
    000009C6 77               [ 8] 2156 	ld	(hl), a
    000009C7 7E               [ 8] 2157 	ld	a, (hl)
    000009C8 B7               [ 4] 2158 	or	a, a
    000009C9 CAr04r14         [16] 2159 	jp	Z, 00239$
                                   2160 ;src/rat.c:225: if (r->cooldown_timer > 0) {
    000009CC F8 25            [12] 2161 	ldhl	sp,#37
    000009CE 2A               [ 8] 2162 	ld	a, (hl+)
    000009CF 5F               [ 4] 2163 	ld	e, a
    000009D0 56               [ 8] 2164 	ld	d, (hl)
    000009D1 21 0A 00         [12] 2165 	ld	hl, #0x000a
    000009D4 19               [ 8] 2166 	add	hl, de
    000009D5 4D               [ 4] 2167 	ld	c, l
    000009D6 44               [ 4] 2168 	ld	b, h
    000009D7 0A               [ 8] 2169 	ld	a, (bc)
    000009D8 B7               [ 4] 2170 	or	a, a
    000009D9 28 02            [12] 2171 	jr	Z, 00137$
                                   2172 ;src/rat.c:226: r->cooldown_timer--;
    000009DB 3D               [ 4] 2173 	dec	a
    000009DC 02               [ 8] 2174 	ld	(bc), a
    000009DD                       2175 00137$:
                                   2176 ;src/rat.c:230: if (r->reproduce_timer > 0) {
    000009DD F8 25            [12] 2177 	ldhl	sp,#37
    000009DF 2A               [ 8] 2178 	ld	a, (hl+)
    000009E0 5F               [ 4] 2179 	ld	e, a
    000009E1 56               [ 8] 2180 	ld	d, (hl)
    000009E2 21 09 00         [12] 2181 	ld	hl, #0x0009
    000009E5 19               [ 8] 2182 	add	hl, de
    000009E6 5D               [ 4] 2183 	ld	e, l
    000009E7 54               [ 4] 2184 	ld	d, h
    000009E8 1A               [ 8] 2185 	ld	a, (de)
    000009E9 F8 3A            [12] 2186 	ldhl	sp,	#58
    000009EB 77               [ 8] 2187 	ld	(hl), a
                                   2188 ;src/rat.c:237: spawn_rat(r->rat_x, r->rat_y, get_opposite(r->current_dir));
    000009EC D5               [16] 2189 	push	de
    000009ED F8 27            [12] 2190 	ldhl	sp,#39
    000009EF 2A               [ 8] 2191 	ld	a, (hl+)
    000009F0 5F               [ 4] 2192 	ld	e, a
    000009F1 56               [ 8] 2193 	ld	d, (hl)
    000009F2 21 07 00         [12] 2194 	ld	hl, #0x0007
    000009F5 19               [ 8] 2195 	add	hl, de
    000009F6 D1               [12] 2196 	pop	de
    000009F7 E5               [16] 2197 	push	hl
    000009F8 7D               [ 4] 2198 	ld	a, l
    000009F9 F8 29            [12] 2199 	ldhl	sp,	#41
    000009FB 77               [ 8] 2200 	ld	(hl), a
    000009FC E1               [12] 2201 	pop	hl
    000009FD 7C               [ 4] 2202 	ld	a, h
    000009FE F8 28            [12] 2203 	ldhl	sp,	#40
    00000A00 32               [ 8] 2204 	ld	(hl-), a
    00000A01 2B               [ 8] 2205 	dec	hl
    00000A02 2B               [ 8] 2206 	dec	hl
    00000A03 D5               [16] 2207 	push	de
    00000A04 2A               [ 8] 2208 	ld	a, (hl+)
    00000A05 5F               [ 4] 2209 	ld	e, a
    00000A06 56               [ 8] 2210 	ld	d, (hl)
    00000A07 21 02 00         [12] 2211 	ld	hl, #0x0002
    00000A0A 19               [ 8] 2212 	add	hl, de
    00000A0B D1               [12] 2213 	pop	de
    00000A0C E5               [16] 2214 	push	hl
    00000A0D 7D               [ 4] 2215 	ld	a, l
    00000A0E F8 2B            [12] 2216 	ldhl	sp,	#43
    00000A10 77               [ 8] 2217 	ld	(hl), a
    00000A11 E1               [12] 2218 	pop	hl
    00000A12 7C               [ 4] 2219 	ld	a, h
    00000A13 F8 2A            [12] 2220 	ldhl	sp,	#42
    00000A15 77               [ 8] 2221 	ld	(hl), a
    00000A16 D5               [16] 2222 	push	de
    00000A17 F8 27            [12] 2223 	ldhl	sp,#39
    00000A19 2A               [ 8] 2224 	ld	a, (hl+)
    00000A1A 5F               [ 4] 2225 	ld	e, a
    00000A1B 56               [ 8] 2226 	ld	d, (hl)
    00000A1C 6B               [ 4] 2227 	ld	l, e
    00000A1D 62               [ 4] 2228 	ld	h, d
    00000A1E 23               [ 8] 2229 	inc	hl
    00000A1F D1               [12] 2230 	pop	de
    00000A20 33               [ 8] 2231 	inc	sp
    00000A21 33               [ 8] 2232 	inc	sp
    00000A22 E5               [16] 2233 	push	hl
                                   2234 ;src/rat.c:230: if (r->reproduce_timer > 0) {
    00000A23 F8 3A            [12] 2235 	ldhl	sp,	#58
    00000A25 7E               [ 8] 2236 	ld	a, (hl)
    00000A26 B7               [ 4] 2237 	or	a, a
    00000A27 28 39            [12] 2238 	jr	Z, 00143$
                                   2239 ;src/rat.c:231: r->reproduce_timer--;
    00000A29 7E               [ 8] 2240 	ld	a, (hl)
    00000A2A 3D               [ 4] 2241 	dec	a
    00000A2B 12               [ 8] 2242 	ld	(de), a
                                   2243 ;src/rat.c:232: if (r->reproduce_timer == 0) {
    00000A2C B7               [ 4] 2244 	or	a, a
    00000A2D C2r04r14         [16] 2245 	jp	NZ, 00239$
                                   2246 ;src/rat.c:234: r->cooldown_timer = 120; // 2 secondi di pausa
    00000A30 3E 78            [ 8] 2247 	ld	a, #0x78
    00000A32 02               [ 8] 2248 	ld	(bc), a
                                   2249 ;src/rat.c:235: if (r->is_mother) {
    00000A33 F8 25            [12] 2250 	ldhl	sp,#37
    00000A35 2A               [ 8] 2251 	ld	a, (hl+)
    00000A36 5F               [ 4] 2252 	ld	e, a
    00000A37 56               [ 8] 2253 	ld	d, (hl)
    00000A38 21 0B 00         [12] 2254 	ld	hl, #0x000b
    00000A3B 19               [ 8] 2255 	add	hl, de
    00000A3C 4D               [ 4] 2256 	ld	c, l
    00000A3D 44               [ 4] 2257 	ld	b, h
    00000A3E 0A               [ 8] 2258 	ld	a, (bc)
    00000A3F B7               [ 4] 2259 	or	a, a
    00000A40 CAr04r14         [16] 2260 	jp	Z, 00239$
                                   2261 ;src/rat.c:236: r->is_mother = 0;
    00000A43 AF               [ 4] 2262 	xor	a, a
    00000A44 02               [ 8] 2263 	ld	(bc), a
                                   2264 ;src/rat.c:237: spawn_rat(r->rat_x, r->rat_y, get_opposite(r->current_dir));
    00000A45 F8 27            [12] 2265 	ldhl	sp,#39
    00000A47 2A               [ 8] 2266 	ld	a, (hl+)
    00000A48 5F               [ 4] 2267 	ld	e, a
    00000A49 56               [ 8] 2268 	ld	d, (hl)
    00000A4A 1A               [ 8] 2269 	ld	a, (de)
    00000A4B CDr00r00         [24] 2270 	call	_get_opposite
    00000A4E 47               [ 4] 2271 	ld	b, a
    00000A4F F8 29            [12] 2272 	ldhl	sp,#41
    00000A51 2A               [ 8] 2273 	ld	a, (hl+)
    00000A52 5F               [ 4] 2274 	ld	e, a
    00000A53 56               [ 8] 2275 	ld	d, (hl)
    00000A54 1A               [ 8] 2276 	ld	a, (de)
    00000A55 4F               [ 4] 2277 	ld	c, a
    00000A56 D1               [12] 2278 	pop	de
    00000A57 D5               [16] 2279 	push	de
    00000A58 1A               [ 8] 2280 	ld	a, (de)
    00000A59 C5               [16] 2281 	push	bc
    00000A5A 33               [ 8] 2282 	inc	sp
    00000A5B 59               [ 4] 2283 	ld	e, c
    00000A5C CDrE0r01         [24] 2284 	call	_spawn_rat
                                   2285 ;src/rat.c:240: continue;
    00000A5F C3r04r14         [16] 2286 	jp	00239$
    00000A62                       2287 00143$:
                                   2288 ;src/rat.c:243: if (r->rat_x == r->target_x && r->rat_y == r->target_y) {
    00000A62 F8 00            [12] 2289 	ldhl	sp,	#0
    00000A64 7E               [ 8] 2290 	ld	a, (hl)
    00000A65 F8 2B            [12] 2291 	ldhl	sp,	#43
    00000A67 77               [ 8] 2292 	ld	(hl), a
    00000A68 F8 01            [12] 2293 	ldhl	sp,	#1
    00000A6A 7E               [ 8] 2294 	ld	a, (hl)
    00000A6B F8 2C            [12] 2295 	ldhl	sp,	#44
    00000A6D 77               [ 8] 2296 	ld	(hl), a
    00000A6E D1               [12] 2297 	pop	de
    00000A6F D5               [16] 2298 	push	de
    00000A70 1A               [ 8] 2299 	ld	a, (de)
    00000A71 F8 3A            [12] 2300 	ldhl	sp,	#58
    00000A73 77               [ 8] 2301 	ld	(hl), a
    00000A74 F8 25            [12] 2302 	ldhl	sp,#37
    00000A76 2A               [ 8] 2303 	ld	a, (hl+)
    00000A77 5F               [ 4] 2304 	ld	e, a
    00000A78 56               [ 8] 2305 	ld	d, (hl)
    00000A79 21 03 00         [12] 2306 	ld	hl, #0x0003
    00000A7C 19               [ 8] 2307 	add	hl, de
    00000A7D E5               [16] 2308 	push	hl
    00000A7E 7D               [ 4] 2309 	ld	a, l
    00000A7F F8 2F            [12] 2310 	ldhl	sp,	#47
    00000A81 77               [ 8] 2311 	ld	(hl), a
    00000A82 E1               [12] 2312 	pop	hl
    00000A83 7C               [ 4] 2313 	ld	a, h
    00000A84 F8 2E            [12] 2314 	ldhl	sp,	#46
    00000A86 32               [ 8] 2315 	ld	(hl-), a
    00000A87 2A               [ 8] 2316 	ld	a, (hl+)
    00000A88 5F               [ 4] 2317 	ld	e, a
    00000A89 56               [ 8] 2318 	ld	d, (hl)
    00000A8A 1A               [ 8] 2319 	ld	a, (de)
    00000A8B 4F               [ 4] 2320 	ld	c, a
    00000A8C F8 25            [12] 2321 	ldhl	sp,#37
    00000A8E 2A               [ 8] 2322 	ld	a, (hl+)
    00000A8F 5F               [ 4] 2323 	ld	e, a
    00000A90 56               [ 8] 2324 	ld	d, (hl)
    00000A91 21 04 00         [12] 2325 	ld	hl, #0x0004
    00000A94 19               [ 8] 2326 	add	hl, de
    00000A95 E5               [16] 2327 	push	hl
    00000A96 7D               [ 4] 2328 	ld	a, l
    00000A97 F8 31            [12] 2329 	ldhl	sp,	#49
    00000A99 77               [ 8] 2330 	ld	(hl), a
    00000A9A E1               [12] 2331 	pop	hl
    00000A9B 7C               [ 4] 2332 	ld	a, h
    00000A9C F8 30            [12] 2333 	ldhl	sp,	#48
    00000A9E 77               [ 8] 2334 	ld	(hl), a
    00000A9F F8 3A            [12] 2335 	ldhl	sp,	#58
    00000AA1 7E               [ 8] 2336 	ld	a, (hl)
    00000AA2 91               [ 4] 2337 	sub	a, c
    00000AA3 C2rE6r0D         [16] 2338 	jp	NZ, 00207$
    00000AA6 F8 29            [12] 2339 	ldhl	sp,#41
    00000AA8 2A               [ 8] 2340 	ld	a, (hl+)
    00000AA9 5F               [ 4] 2341 	ld	e, a
    00000AAA 56               [ 8] 2342 	ld	d, (hl)
    00000AAB 1A               [ 8] 2343 	ld	a, (de)
    00000AAC F8 37            [12] 2344 	ldhl	sp,	#55
    00000AAE 77               [ 8] 2345 	ld	(hl), a
    00000AAF F8 2F            [12] 2346 	ldhl	sp,	#47
    00000AB1 2A               [ 8] 2347 	ld	a, (hl+)
    00000AB2 23               [ 8] 2348 	inc	hl
    00000AB3 32               [ 8] 2349 	ld	(hl-), a
    00000AB4 2A               [ 8] 2350 	ld	a, (hl+)
    00000AB5 23               [ 8] 2351 	inc	hl
    00000AB6 32               [ 8] 2352 	ld	(hl-), a
    00000AB7 2B               [ 8] 2353 	dec	hl
    00000AB8 2B               [ 8] 2354 	dec	hl
    00000AB9 2A               [ 8] 2355 	ld	a, (hl+)
    00000ABA 5F               [ 4] 2356 	ld	e, a
    00000ABB 56               [ 8] 2357 	ld	d, (hl)
    00000ABC 1A               [ 8] 2358 	ld	a, (de)
    00000ABD 4F               [ 4] 2359 	ld	c, a
    00000ABE F8 37            [12] 2360 	ldhl	sp,	#55
    00000AC0 7E               [ 8] 2361 	ld	a, (hl)
    00000AC1 91               [ 4] 2362 	sub	a, c
    00000AC2 C2rE6r0D         [16] 2363 	jp	NZ, 00207$
                                   2364 ;src/rat.c:245: uint8_t num_valid = 0;
    00000AC5 F8 39            [12] 2365 	ldhl	sp,	#57
                                   2366 ;src/rat.c:247: if (r->rat_y < MAZE_HEIGHT - 1 && maze[r->rat_y + 1][r->rat_x] == 0) valid_dirs[num_valid++] = 0;
    00000AC7 AF               [ 4] 2367 	xor	a, a
    00000AC8 32               [ 8] 2368 	ld	(hl-), a
    00000AC9 2B               [ 8] 2369 	dec	hl
    00000ACA 7E               [ 8] 2370 	ld	a, (hl)
    00000ACB D6 10            [ 8] 2371 	sub	a, #0x10
    00000ACD 30 56            [12] 2372 	jr	NC, 00145$
    00000ACF 7E               [ 8] 2373 	ld	a, (hl)
    00000AD0 F8 34            [12] 2374 	ldhl	sp,	#52
    00000AD2 22               [ 8] 2375 	ld	(hl+), a
    00000AD3 AF               [ 4] 2376 	xor	a, a
    00000AD4 32               [ 8] 2377 	ld	(hl-), a
    00000AD5 2A               [ 8] 2378 	ld	a, (hl+)
    00000AD6 5F               [ 4] 2379 	ld	e, a
    00000AD7 56               [ 8] 2380 	ld	d, (hl)
    00000AD8 6B               [ 4] 2381 	ld	l, e
    00000AD9 62               [ 4] 2382 	ld	h, d
    00000ADA 23               [ 8] 2383 	inc	hl
    00000ADB E5               [16] 2384 	push	hl
    00000ADC 7D               [ 4] 2385 	ld	a, l
    00000ADD F8 38            [12] 2386 	ldhl	sp,	#56
    00000ADF 77               [ 8] 2387 	ld	(hl), a
    00000AE0 E1               [12] 2388 	pop	hl
    00000AE1 7C               [ 4] 2389 	ld	a, h
    00000AE2 F8 37            [12] 2390 	ldhl	sp,	#55
    00000AE4 77               [ 8] 2391 	ld	(hl), a
    00000AE5 3E 05            [ 8] 2392 	ld	a, #0x05
    00000AE7                       2393 00826$:
    00000AE7 F8 36            [12] 2394 	ldhl	sp,	#54
    00000AE9 CB 26            [16] 2395 	sla	(hl)
    00000AEB 23               [ 8] 2396 	inc	hl
    00000AEC CB 16            [16] 2397 	rl	(hl)
    00000AEE 3D               [ 4] 2398 	dec	a
    00000AEF 20 F6            [12] 2399 	jr	NZ, 00826$
    00000AF1 2B               [ 8] 2400 	dec	hl
    00000AF2 2A               [ 8] 2401 	ld	a, (hl+)
    00000AF3 5F               [ 4] 2402 	ld	e, a
    00000AF4 56               [ 8] 2403 	ld	d, (hl)
    00000AF5 21r00r00         [12] 2404 	ld	hl, #_maze
    00000AF8 19               [ 8] 2405 	add	hl, de
    00000AF9 E5               [16] 2406 	push	hl
    00000AFA 7D               [ 4] 2407 	ld	a, l
    00000AFB F8 36            [12] 2408 	ldhl	sp,	#54
    00000AFD 77               [ 8] 2409 	ld	(hl), a
    00000AFE E1               [12] 2410 	pop	hl
    00000AFF 7C               [ 4] 2411 	ld	a, h
    00000B00 F8 35            [12] 2412 	ldhl	sp,	#53
    00000B02 32               [ 8] 2413 	ld	(hl-), a
    00000B03 2A               [ 8] 2414 	ld	a, (hl+)
    00000B04 5F               [ 4] 2415 	ld	e, a
    00000B05 56               [ 8] 2416 	ld	d, (hl)
    00000B06 F8 3A            [12] 2417 	ldhl	sp,	#58
    00000B08 6E               [ 8] 2418 	ld	l, (hl)
    00000B09 26 00            [ 8] 2419 	ld	h, #0x00
    00000B0B 19               [ 8] 2420 	add	hl, de
    00000B0C E5               [16] 2421 	push	hl
    00000B0D 7D               [ 4] 2422 	ld	a, l
    00000B0E F8 38            [12] 2423 	ldhl	sp,	#56
    00000B10 77               [ 8] 2424 	ld	(hl), a
    00000B11 E1               [12] 2425 	pop	hl
    00000B12 7C               [ 4] 2426 	ld	a, h
    00000B13 F8 37            [12] 2427 	ldhl	sp,	#55
    00000B15 32               [ 8] 2428 	ld	(hl-), a
    00000B16 2A               [ 8] 2429 	ld	a, (hl+)
    00000B17 5F               [ 4] 2430 	ld	e, a
    00000B18 56               [ 8] 2431 	ld	d, (hl)
    00000B19 1A               [ 8] 2432 	ld	a, (de)
    00000B1A B7               [ 4] 2433 	or	a, a
    00000B1B 20 08            [12] 2434 	jr	NZ, 00145$
    00000B1D 23               [ 8] 2435 	inc	hl
    00000B1E 23               [ 8] 2436 	inc	hl
    00000B1F 36 01            [12] 2437 	ld	(hl), #0x01
    00000B21 F8 1C            [12] 2438 	ldhl	sp,	#28
    00000B23 36 00            [12] 2439 	ld	(hl), #0x00
    00000B25                       2440 00145$:
                                   2441 ;src/rat.c:248: if (r->rat_y > 0 && maze[r->rat_y - 1][r->rat_x] == 0) valid_dirs[num_valid++] = 1;
    00000B25 F8 29            [12] 2442 	ldhl	sp,#41
    00000B27 2A               [ 8] 2443 	ld	a, (hl+)
    00000B28 5F               [ 4] 2444 	ld	e, a
    00000B29 56               [ 8] 2445 	ld	d, (hl)
    00000B2A 1A               [ 8] 2446 	ld	a, (de)
    00000B2B F8 3A            [12] 2447 	ldhl	sp,	#58
    00000B2D 77               [ 8] 2448 	ld	(hl), a
    00000B2E 7E               [ 8] 2449 	ld	a, (hl)
    00000B2F B7               [ 4] 2450 	or	a, a
    00000B30 28 58            [12] 2451 	jr	Z, 00148$
    00000B32 7E               [ 8] 2452 	ld	a, (hl)
    00000B33 F8 34            [12] 2453 	ldhl	sp,	#52
    00000B35 22               [ 8] 2454 	ld	(hl+), a
    00000B36 AF               [ 4] 2455 	xor	a, a
    00000B37 32               [ 8] 2456 	ld	(hl-), a
    00000B38 2A               [ 8] 2457 	ld	a, (hl+)
    00000B39 5F               [ 4] 2458 	ld	e, a
    00000B3A 56               [ 8] 2459 	ld	d, (hl)
    00000B3B 21 01 00         [12] 2460 	ld	hl, #0x0001
    00000B3E 7B               [ 4] 2461 	ld	a, e
    00000B3F 95               [ 4] 2462 	sub	a, l
    00000B40 5F               [ 4] 2463 	ld	e, a
    00000B41 7A               [ 4] 2464 	ld	a, d
    00000B42 9C               [ 4] 2465 	sbc	a, h
    00000B43 F8 37            [12] 2466 	ldhl	sp,	#55
    00000B45 32               [ 8] 2467 	ld	(hl-), a
    00000B46 73               [ 8] 2468 	ld	(hl), e
    00000B47 3A               [ 8] 2469 	ld	a, (hl-)
    00000B48 2B               [ 8] 2470 	dec	hl
    00000B49 77               [ 8] 2471 	ld	(hl), a
    00000B4A F8 37            [12] 2472 	ldhl	sp,	#55
    00000B4C 3A               [ 8] 2473 	ld	a, (hl-)
    00000B4D 2B               [ 8] 2474 	dec	hl
    00000B4E 77               [ 8] 2475 	ld	(hl), a
    00000B4F 3E 05            [ 8] 2476 	ld	a, #0x05
    00000B51                       2477 00827$:
    00000B51 F8 34            [12] 2478 	ldhl	sp,	#52
    00000B53 CB 26            [16] 2479 	sla	(hl)
    00000B55 23               [ 8] 2480 	inc	hl
    00000B56 CB 16            [16] 2481 	rl	(hl)
    00000B58 3D               [ 4] 2482 	dec	a
    00000B59 20 F6            [12] 2483 	jr	NZ, 00827$
    00000B5B 2B               [ 8] 2484 	dec	hl
    00000B5C 2A               [ 8] 2485 	ld	a, (hl+)
    00000B5D 5F               [ 4] 2486 	ld	e, a
    00000B5E 56               [ 8] 2487 	ld	d, (hl)
    00000B5F 21r00r00         [12] 2488 	ld	hl, #_maze
    00000B62 19               [ 8] 2489 	add	hl, de
    00000B63 E5               [16] 2490 	push	hl
    00000B64 7D               [ 4] 2491 	ld	a, l
    00000B65 F8 38            [12] 2492 	ldhl	sp,	#56
    00000B67 77               [ 8] 2493 	ld	(hl), a
    00000B68 E1               [12] 2494 	pop	hl
    00000B69 7C               [ 4] 2495 	ld	a, h
    00000B6A F8 37            [12] 2496 	ldhl	sp,	#55
    00000B6C 77               [ 8] 2497 	ld	(hl), a
    00000B6D D1               [12] 2498 	pop	de
    00000B6E D5               [16] 2499 	push	de
    00000B6F 1A               [ 8] 2500 	ld	a, (de)
    00000B70 5F               [ 4] 2501 	ld	e, a
    00000B71 16 00            [ 8] 2502 	ld	d, #0x00
    00000B73 3A               [ 8] 2503 	ld	a, (hl-)
    00000B74 6E               [ 8] 2504 	ld	l, (hl)
    00000B75 67               [ 4] 2505 	ld	h, a
    00000B76 19               [ 8] 2506 	add	hl, de
    00000B77 4D               [ 4] 2507 	ld	c, l
    00000B78 44               [ 4] 2508 	ld	b, h
    00000B79 0A               [ 8] 2509 	ld	a, (bc)
    00000B7A B7               [ 4] 2510 	or	a, a
    00000B7B 20 0D            [12] 2511 	jr	NZ, 00148$
    00000B7D F8 39            [12] 2512 	ldhl	sp,	#57
    00000B7F 5E               [ 8] 2513 	ld	e, (hl)
    00000B80 34               [12] 2514 	inc	(hl)
    00000B81 16 00            [ 8] 2515 	ld	d, #0x00
    00000B83 21 1C 00         [12] 2516 	ld	hl, #28
    00000B86 39               [ 8] 2517 	add	hl, sp
    00000B87 19               [ 8] 2518 	add	hl, de
    00000B88 36 01            [12] 2519 	ld	(hl), #0x01
    00000B8A                       2520 00148$:
                                   2521 ;src/rat.c:249: if (r->rat_x > 0 && maze[r->rat_y][r->rat_x - 1] == 0) valid_dirs[num_valid++] = 2;
    00000B8A D1               [12] 2522 	pop	de
    00000B8B D5               [16] 2523 	push	de
    00000B8C 1A               [ 8] 2524 	ld	a, (de)
    00000B8D F8 3A            [12] 2525 	ldhl	sp,	#58
    00000B8F 77               [ 8] 2526 	ld	(hl), a
    00000B90 7E               [ 8] 2527 	ld	a, (hl)
    00000B91 B7               [ 4] 2528 	or	a, a
    00000B92 28 4F            [12] 2529 	jr	Z, 00151$
    00000B94 F8 29            [12] 2530 	ldhl	sp,#41
    00000B96 2A               [ 8] 2531 	ld	a, (hl+)
    00000B97 5F               [ 4] 2532 	ld	e, a
    00000B98 56               [ 8] 2533 	ld	d, (hl)
    00000B99 1A               [ 8] 2534 	ld	a, (de)
    00000B9A F8 37            [12] 2535 	ldhl	sp,	#55
    00000B9C 77               [ 8] 2536 	ld	(hl), a
    00000B9D 3A               [ 8] 2537 	ld	a, (hl-)
    00000B9E 22               [ 8] 2538 	ld	(hl+), a
    00000B9F AF               [ 4] 2539 	xor	a, a
    00000BA0 32               [ 8] 2540 	ld	(hl-), a
    00000BA1 3A               [ 8] 2541 	ld	a, (hl-)
    00000BA2 2B               [ 8] 2542 	dec	hl
    00000BA3 22               [ 8] 2543 	ld	(hl+), a
    00000BA4 36 00            [12] 2544 	ld	(hl), #0x00
    00000BA6 3E 05            [ 8] 2545 	ld	a, #0x05
    00000BA8                       2546 00828$:
    00000BA8 F8 34            [12] 2547 	ldhl	sp,	#52
    00000BAA CB 26            [16] 2548 	sla	(hl)
    00000BAC 23               [ 8] 2549 	inc	hl
    00000BAD CB 16            [16] 2550 	rl	(hl)
    00000BAF 3D               [ 4] 2551 	dec	a
    00000BB0 20 F6            [12] 2552 	jr	NZ, 00828$
    00000BB2 2B               [ 8] 2553 	dec	hl
    00000BB3 2A               [ 8] 2554 	ld	a, (hl+)
    00000BB4 5F               [ 4] 2555 	ld	e, a
    00000BB5 56               [ 8] 2556 	ld	d, (hl)
    00000BB6 21r00r00         [12] 2557 	ld	hl, #_maze
    00000BB9 19               [ 8] 2558 	add	hl, de
    00000BBA E5               [16] 2559 	push	hl
    00000BBB 7D               [ 4] 2560 	ld	a, l
    00000BBC F8 38            [12] 2561 	ldhl	sp,	#56
    00000BBE 77               [ 8] 2562 	ld	(hl), a
    00000BBF E1               [12] 2563 	pop	hl
    00000BC0 7C               [ 4] 2564 	ld	a, h
    00000BC1 F8 37            [12] 2565 	ldhl	sp,	#55
    00000BC3 77               [ 8] 2566 	ld	(hl), a
    00000BC4 F8 3A            [12] 2567 	ldhl	sp,	#58
    00000BC6 5E               [ 8] 2568 	ld	e, (hl)
    00000BC7 1D               [ 4] 2569 	dec	e
    00000BC8 16 00            [ 8] 2570 	ld	d, #0x00
    00000BCA F8 36            [12] 2571 	ldhl	sp,	#54
    00000BCC 2A               [ 8] 2572 	ld	a,	(hl+)
    00000BCD 66               [ 8] 2573 	ld	h, (hl)
    00000BCE 6F               [ 4] 2574 	ld	l, a
    00000BCF 19               [ 8] 2575 	add	hl, de
    00000BD0 4D               [ 4] 2576 	ld	c, l
    00000BD1 44               [ 4] 2577 	ld	b, h
    00000BD2 0A               [ 8] 2578 	ld	a, (bc)
    00000BD3 B7               [ 4] 2579 	or	a, a
    00000BD4 20 0D            [12] 2580 	jr	NZ, 00151$
    00000BD6 F8 39            [12] 2581 	ldhl	sp,	#57
    00000BD8 5E               [ 8] 2582 	ld	e, (hl)
    00000BD9 34               [12] 2583 	inc	(hl)
    00000BDA 16 00            [ 8] 2584 	ld	d, #0x00
    00000BDC 21 1C 00         [12] 2585 	ld	hl, #28
    00000BDF 39               [ 8] 2586 	add	hl, sp
    00000BE0 19               [ 8] 2587 	add	hl, de
    00000BE1 36 02            [12] 2588 	ld	(hl), #0x02
    00000BE3                       2589 00151$:
                                   2590 ;src/rat.c:250: if (r->rat_x < MAZE_WIDTH - 1 && maze[r->rat_y][r->rat_x + 1] == 0) valid_dirs[num_valid++] = 3;
    00000BE3 D1               [12] 2591 	pop	de
    00000BE4 D5               [16] 2592 	push	de
    00000BE5 1A               [ 8] 2593 	ld	a, (de)
    00000BE6 F8 3A            [12] 2594 	ldhl	sp,	#58
    00000BE8 77               [ 8] 2595 	ld	(hl), a
    00000BE9 7E               [ 8] 2596 	ld	a, (hl)
    00000BEA D6 12            [ 8] 2597 	sub	a, #0x12
    00000BEC 30 5A            [12] 2598 	jr	NC, 00154$
    00000BEE F8 29            [12] 2599 	ldhl	sp,#41
    00000BF0 2A               [ 8] 2600 	ld	a, (hl+)
    00000BF1 5F               [ 4] 2601 	ld	e, a
    00000BF2 56               [ 8] 2602 	ld	d, (hl)
    00000BF3 1A               [ 8] 2603 	ld	a, (de)
    00000BF4 F8 37            [12] 2604 	ldhl	sp,	#55
    00000BF6 77               [ 8] 2605 	ld	(hl), a
    00000BF7 3A               [ 8] 2606 	ld	a, (hl-)
    00000BF8 22               [ 8] 2607 	ld	(hl+), a
    00000BF9 AF               [ 4] 2608 	xor	a, a
    00000BFA 32               [ 8] 2609 	ld	(hl-), a
    00000BFB 3A               [ 8] 2610 	ld	a, (hl-)
    00000BFC 2B               [ 8] 2611 	dec	hl
    00000BFD 22               [ 8] 2612 	ld	(hl+), a
    00000BFE 36 00            [12] 2613 	ld	(hl), #0x00
    00000C00 3E 05            [ 8] 2614 	ld	a, #0x05
    00000C02                       2615 00829$:
    00000C02 F8 34            [12] 2616 	ldhl	sp,	#52
    00000C04 CB 26            [16] 2617 	sla	(hl)
    00000C06 23               [ 8] 2618 	inc	hl
    00000C07 CB 16            [16] 2619 	rl	(hl)
    00000C09 3D               [ 4] 2620 	dec	a
    00000C0A 20 F6            [12] 2621 	jr	NZ, 00829$
    00000C0C 2B               [ 8] 2622 	dec	hl
    00000C0D 2A               [ 8] 2623 	ld	a, (hl+)
    00000C0E 5F               [ 4] 2624 	ld	e, a
    00000C0F 56               [ 8] 2625 	ld	d, (hl)
    00000C10 21r00r00         [12] 2626 	ld	hl, #_maze
    00000C13 19               [ 8] 2627 	add	hl, de
    00000C14 E5               [16] 2628 	push	hl
    00000C15 7D               [ 4] 2629 	ld	a, l
    00000C16 F8 38            [12] 2630 	ldhl	sp,	#56
    00000C18 77               [ 8] 2631 	ld	(hl), a
    00000C19 E1               [12] 2632 	pop	hl
    00000C1A 7C               [ 4] 2633 	ld	a, h
    00000C1B F8 37            [12] 2634 	ldhl	sp,	#55
    00000C1D 77               [ 8] 2635 	ld	(hl), a
    00000C1E F8 3A            [12] 2636 	ldhl	sp,	#58
    00000C20 34               [12] 2637 	inc	(hl)
    00000C21 5E               [ 8] 2638 	ld	e, (hl)
    00000C22 16 00            [ 8] 2639 	ld	d, #0x00
    00000C24 F8 36            [12] 2640 	ldhl	sp,	#54
    00000C26 2A               [ 8] 2641 	ld	a,	(hl+)
    00000C27 66               [ 8] 2642 	ld	h, (hl)
    00000C28 6F               [ 4] 2643 	ld	l, a
    00000C29 19               [ 8] 2644 	add	hl, de
    00000C2A E5               [16] 2645 	push	hl
    00000C2B 7D               [ 4] 2646 	ld	a, l
    00000C2C F8 36            [12] 2647 	ldhl	sp,	#54
    00000C2E 77               [ 8] 2648 	ld	(hl), a
    00000C2F E1               [12] 2649 	pop	hl
    00000C30 7C               [ 4] 2650 	ld	a, h
    00000C31 F8 35            [12] 2651 	ldhl	sp,	#53
    00000C33 32               [ 8] 2652 	ld	(hl-), a
    00000C34 2A               [ 8] 2653 	ld	a, (hl+)
    00000C35 5F               [ 4] 2654 	ld	e, a
    00000C36 56               [ 8] 2655 	ld	d, (hl)
    00000C37 1A               [ 8] 2656 	ld	a, (de)
    00000C38 B7               [ 4] 2657 	or	a, a
    00000C39 20 0D            [12] 2658 	jr	NZ, 00154$
    00000C3B F8 39            [12] 2659 	ldhl	sp,	#57
    00000C3D 5E               [ 8] 2660 	ld	e, (hl)
    00000C3E 34               [12] 2661 	inc	(hl)
    00000C3F 16 00            [ 8] 2662 	ld	d, #0x00
    00000C41 21 1C 00         [12] 2663 	ld	hl, #28
    00000C44 39               [ 8] 2664 	add	hl, sp
    00000C45 19               [ 8] 2665 	add	hl, de
    00000C46 36 03            [12] 2666 	ld	(hl), #0x03
    00000C48                       2667 00154$:
                                   2668 ;src/rat.c:252: if (num_valid > 0) {
    00000C48 F8 39            [12] 2669 	ldhl	sp,	#57
    00000C4A 7E               [ 8] 2670 	ld	a, (hl)
    00000C4B B7               [ 4] 2671 	or	a, a
    00000C4C CArE6r0D         [16] 2672 	jp	Z, 00207$
                                   2673 ;src/rat.c:273: if (num_valid == 1) rnd = 0;
    00000C4F 7E               [ 8] 2674 	ld	a, (hl)
    00000C50 3D               [ 4] 2675 	dec	a
    00000C51 3E 01            [ 8] 2676 	ld	a, #0x01
    00000C53 28 01            [12] 2677 	jr	Z, 00831$
    00000C55 AF               [ 4] 2678 	xor	a, a
    00000C56                       2679 00831$:
    00000C56 F8 33            [12] 2680 	ldhl	sp,	#51
    00000C58 77               [ 8] 2681 	ld	(hl), a
                                   2682 ;src/rat.c:274: else if (num_valid == 2) rnd = rand() & 1;
    00000C59 F8 39            [12] 2683 	ldhl	sp,	#57
    00000C5B 7E               [ 8] 2684 	ld	a, (hl)
    00000C5C D6 02            [ 8] 2685 	sub	a, #0x02
    00000C5E 3E 01            [ 8] 2686 	ld	a, #0x01
    00000C60 28 01            [12] 2687 	jr	Z, 00833$
    00000C62 AF               [ 4] 2688 	xor	a, a
    00000C63                       2689 00833$:
    00000C63 F8 34            [12] 2690 	ldhl	sp,	#52
    00000C65 77               [ 8] 2691 	ld	(hl), a
                                   2692 ;src/rat.c:253: if (num_valid > 1 && r->current_dir != 255) {
    00000C66 3E 01            [ 8] 2693 	ld	a, #0x01
    00000C68 F8 39            [12] 2694 	ldhl	sp,	#57
    00000C6A 96               [ 8] 2695 	sub	a, (hl)
    00000C6B D2r59r0D         [16] 2696 	jp	NC, 00190$
    00000C6E F8 27            [12] 2697 	ldhl	sp,	#39
    00000C70 7E               [ 8] 2698 	ld	a, (hl)
    00000C71 F8 35            [12] 2699 	ldhl	sp,	#53
    00000C73 77               [ 8] 2700 	ld	(hl), a
    00000C74 F8 28            [12] 2701 	ldhl	sp,	#40
    00000C76 7E               [ 8] 2702 	ld	a, (hl)
    00000C77 F8 36            [12] 2703 	ldhl	sp,	#54
    00000C79 77               [ 8] 2704 	ld	(hl), a
    00000C7A F8 27            [12] 2705 	ldhl	sp,#39
    00000C7C 2A               [ 8] 2706 	ld	a, (hl+)
    00000C7D 5F               [ 4] 2707 	ld	e, a
    00000C7E 56               [ 8] 2708 	ld	d, (hl)
    00000C7F 1A               [ 8] 2709 	ld	a, (de)
    00000C80 FE FF            [ 8] 2710 	cp	a, #0xff
    00000C82 CAr59r0D         [16] 2711 	jp	Z, 00190$
                                   2712 ;src/rat.c:254: uint8_t opp = get_opposite(r->current_dir);
    00000C85 CDr00r00         [24] 2713 	call	_get_opposite
    00000C88 4F               [ 4] 2714 	ld	c, a
                                   2715 ;src/rat.c:257: for (uint8_t j = 0; j < num_valid; j++) {
    00000C89 F8 3A            [12] 2716 	ldhl	sp,	#58
    00000C8B 36 00            [12] 2717 	ld	(hl), #0x00
    00000C8D 06 00            [ 8] 2718 	ld	b, #0x00
    00000C8F                       2719 00279$:
    00000C8F 78               [ 4] 2720 	ld	a, b
    00000C90 F8 39            [12] 2721 	ldhl	sp,	#57
    00000C92 96               [ 8] 2722 	sub	a, (hl)
    00000C93 30 2C            [12] 2723 	jr	NC, 00362$
                                   2724 ;src/rat.c:258: if (valid_dirs[j] != opp) {
    00000C95 58               [ 4] 2725 	ld	e, b
    00000C96 16 00            [ 8] 2726 	ld	d, #0x00
    00000C98 21 1C 00         [12] 2727 	ld	hl, #28
    00000C9B 39               [ 8] 2728 	add	hl, sp
    00000C9C 19               [ 8] 2729 	add	hl, de
    00000C9D 7E               [ 8] 2730 	ld	a, (hl)
    00000C9E F8 37            [12] 2731 	ldhl	sp,	#55
    00000CA0 77               [ 8] 2732 	ld	(hl), a
    00000CA1 79               [ 4] 2733 	ld	a, c
    00000CA2 F8 37            [12] 2734 	ldhl	sp,	#55
    00000CA4 96               [ 8] 2735 	sub	a, (hl)
    00000CA5 28 17            [12] 2736 	jr	Z, 00280$
                                   2737 ;src/rat.c:259: filtered[num_filtered++] = valid_dirs[j];
    00000CA7 E5               [16] 2738 	push	hl
    00000CA8 21 22 00         [12] 2739 	ld	hl, #34
    00000CAB 39               [ 8] 2740 	add	hl, sp
    00000CAC 5D               [ 4] 2741 	ld	e, l
    00000CAD 54               [ 4] 2742 	ld	d, h
    00000CAE E1               [12] 2743 	pop	hl
    00000CAF F8 3A            [12] 2744 	ldhl	sp,	#58
    00000CB1 6E               [ 8] 2745 	ld	l, (hl)
    00000CB2 26 00            [ 8] 2746 	ld	h, #0x00
    00000CB4 19               [ 8] 2747 	add	hl, de
    00000CB5 5D               [ 4] 2748 	ld	e, l
    00000CB6 54               [ 4] 2749 	ld	d, h
    00000CB7 F8 3A            [12] 2750 	ldhl	sp,	#58
    00000CB9 34               [12] 2751 	inc	(hl)
    00000CBA F8 37            [12] 2752 	ldhl	sp,	#55
    00000CBC 7E               [ 8] 2753 	ld	a, (hl)
    00000CBD 12               [ 8] 2754 	ld	(de), a
    00000CBE                       2755 00280$:
                                   2756 ;src/rat.c:257: for (uint8_t j = 0; j < num_valid; j++) {
    00000CBE 04               [ 4] 2757 	inc	b
    00000CBF 18 CE            [12] 2758 	jr	00279$
    00000CC1                       2759 00362$:
    00000CC1 F8 3A            [12] 2760 	ldhl	sp,	#58
    00000CC3 7E               [ 8] 2761 	ld	a, (hl)
    00000CC4 F8 37            [12] 2762 	ldhl	sp,	#55
    00000CC6 77               [ 8] 2763 	ld	(hl), a
                                   2764 ;src/rat.c:262: if (num_filtered > 0) {
    00000CC7 F8 3A            [12] 2765 	ldhl	sp,	#58
    00000CC9 7E               [ 8] 2766 	ld	a, (hl)
    00000CCA B7               [ 4] 2767 	or	a, a
    00000CCB 28 47            [12] 2768 	jr	Z, 00178$
                                   2769 ;src/rat.c:264: if (num_filtered == 1) rnd = 0;
    00000CCD 7E               [ 8] 2770 	ld	a, (hl)
    00000CCE 3D               [ 4] 2771 	dec	a
    00000CCF 20 06            [12] 2772 	jr	NZ, 00166$
    00000CD1 F8 3A            [12] 2773 	ldhl	sp,	#58
    00000CD3 36 00            [12] 2774 	ld	(hl), #0x00
    00000CD5 18 22            [12] 2775 	jr	00167$
    00000CD7                       2776 00166$:
                                   2777 ;src/rat.c:265: else if (num_filtered == 2) rnd = rand() & 1; // 0 o 1
    00000CD7 F8 3A            [12] 2778 	ldhl	sp,	#58
    00000CD9 7E               [ 8] 2779 	ld	a, (hl)
    00000CDA D6 02            [ 8] 2780 	sub	a, #0x02
    00000CDC 20 0C            [12] 2781 	jr	NZ, 00159$
    00000CDE CDr00r00         [24] 2782 	call	_rand
    00000CE1 F8 3A            [12] 2783 	ldhl	sp,#58
    00000CE3 73               [ 8] 2784 	ld	(hl), e
    00000CE4 7E               [ 8] 2785 	ld	a, (hl)
    00000CE5 E6 01            [ 8] 2786 	and	a, #0x01
    00000CE7 77               [ 8] 2787 	ld	(hl), a
    00000CE8 18 0F            [12] 2788 	jr	00167$
                                   2789 ;src/rat.c:267: do { rnd = rand() & 3; } while(rnd >= num_filtered); 
    00000CEA                       2790 00159$:
    00000CEA CDr00r00         [24] 2791 	call	_rand
    00000CED 7B               [ 4] 2792 	ld	a, e
    00000CEE E6 03            [ 8] 2793 	and	a, #0x03
    00000CF0 F8 3A            [12] 2794 	ldhl	sp,	#58
    00000CF2 77               [ 8] 2795 	ld	(hl), a
    00000CF3 7E               [ 8] 2796 	ld	a, (hl)
    00000CF4 F8 37            [12] 2797 	ldhl	sp,	#55
    00000CF6 96               [ 8] 2798 	sub	a, (hl)
    00000CF7 30 F1            [12] 2799 	jr	NC, 00159$
    00000CF9                       2800 00167$:
                                   2801 ;src/rat.c:269: r->current_dir = filtered[rnd];
    00000CF9 E5               [16] 2802 	push	hl
    00000CFA 21 22 00         [12] 2803 	ld	hl, #34
    00000CFD 39               [ 8] 2804 	add	hl, sp
    00000CFE 5D               [ 4] 2805 	ld	e, l
    00000CFF 54               [ 4] 2806 	ld	d, h
    00000D00 E1               [12] 2807 	pop	hl
    00000D01 F8 3A            [12] 2808 	ldhl	sp,	#58
    00000D03 6E               [ 8] 2809 	ld	l, (hl)
    00000D04 26 00            [ 8] 2810 	ld	h, #0x00
    00000D06 19               [ 8] 2811 	add	hl, de
    00000D07 4D               [ 4] 2812 	ld	c, l
    00000D08 44               [ 4] 2813 	ld	b, h
    00000D09 0A               [ 8] 2814 	ld	a, (bc)
    00000D0A F8 35            [12] 2815 	ldhl	sp,	#53
    00000D0C 5E               [ 8] 2816 	ld	e, (hl)
    00000D0D 23               [ 8] 2817 	inc	hl
    00000D0E 66               [ 8] 2818 	ld	h, (hl)
    00000D0F 6B               [ 4] 2819 	ld	l, e
    00000D10 77               [ 8] 2820 	ld	(hl), a
    00000D11 C3r9Cr0D         [16] 2821 	jp	00191$
    00000D14                       2822 00178$:
                                   2823 ;src/rat.c:273: if (num_valid == 1) rnd = 0;
    00000D14 F8 33            [12] 2824 	ldhl	sp,	#51
    00000D16 7E               [ 8] 2825 	ld	a, (hl)
    00000D17 B7               [ 4] 2826 	or	a, a
    00000D18 28 06            [12] 2827 	jr	Z, 00175$
    00000D1A F8 3A            [12] 2828 	ldhl	sp,	#58
    00000D1C 36 00            [12] 2829 	ld	(hl), #0x00
    00000D1E 18 1F            [12] 2830 	jr	00176$
    00000D20                       2831 00175$:
                                   2832 ;src/rat.c:274: else if (num_valid == 2) rnd = rand() & 1;
    00000D20 F8 34            [12] 2833 	ldhl	sp,	#52
    00000D22 7E               [ 8] 2834 	ld	a, (hl)
    00000D23 B7               [ 4] 2835 	or	a, a
    00000D24 28 0C            [12] 2836 	jr	Z, 00168$
    00000D26 CDr00r00         [24] 2837 	call	_rand
    00000D29 F8 3A            [12] 2838 	ldhl	sp,#58
    00000D2B 73               [ 8] 2839 	ld	(hl), e
    00000D2C 7E               [ 8] 2840 	ld	a, (hl)
    00000D2D E6 01            [ 8] 2841 	and	a, #0x01
    00000D2F 77               [ 8] 2842 	ld	(hl), a
    00000D30 18 0D            [12] 2843 	jr	00176$
                                   2844 ;src/rat.c:276: do { rnd = rand() & 3; } while(rnd >= num_valid); 
    00000D32                       2845 00168$:
    00000D32 CDr00r00         [24] 2846 	call	_rand
    00000D35 7B               [ 4] 2847 	ld	a, e
    00000D36 E6 03            [ 8] 2848 	and	a, #0x03
    00000D38 F8 3A            [12] 2849 	ldhl	sp,	#58
    00000D3A 77               [ 8] 2850 	ld	(hl), a
    00000D3B 3A               [ 8] 2851 	ld	a, (hl-)
    00000D3C 96               [ 8] 2852 	sub	a, (hl)
    00000D3D 30 F3            [12] 2853 	jr	NC, 00168$
    00000D3F                       2854 00176$:
                                   2855 ;src/rat.c:278: r->current_dir = valid_dirs[rnd];
    00000D3F E5               [16] 2856 	push	hl
    00000D40 21 1E 00         [12] 2857 	ld	hl, #30
    00000D43 39               [ 8] 2858 	add	hl, sp
    00000D44 5D               [ 4] 2859 	ld	e, l
    00000D45 54               [ 4] 2860 	ld	d, h
    00000D46 E1               [12] 2861 	pop	hl
    00000D47 F8 3A            [12] 2862 	ldhl	sp,	#58
    00000D49 6E               [ 8] 2863 	ld	l, (hl)
    00000D4A 26 00            [ 8] 2864 	ld	h, #0x00
    00000D4C 19               [ 8] 2865 	add	hl, de
    00000D4D 4D               [ 4] 2866 	ld	c, l
    00000D4E 44               [ 4] 2867 	ld	b, h
    00000D4F 0A               [ 8] 2868 	ld	a, (bc)
    00000D50 F8 35            [12] 2869 	ldhl	sp,	#53
    00000D52 5E               [ 8] 2870 	ld	e, (hl)
    00000D53 23               [ 8] 2871 	inc	hl
    00000D54 66               [ 8] 2872 	ld	h, (hl)
    00000D55 6B               [ 4] 2873 	ld	l, e
    00000D56 77               [ 8] 2874 	ld	(hl), a
    00000D57 18 43            [12] 2875 	jr	00191$
    00000D59                       2876 00190$:
                                   2877 ;src/rat.c:282: if (num_valid == 1) rnd = 0;
    00000D59 F8 33            [12] 2878 	ldhl	sp,	#51
    00000D5B 7E               [ 8] 2879 	ld	a, (hl)
    00000D5C B7               [ 4] 2880 	or	a, a
    00000D5D 28 06            [12] 2881 	jr	Z, 00187$
    00000D5F F8 3A            [12] 2882 	ldhl	sp,	#58
    00000D61 36 00            [12] 2883 	ld	(hl), #0x00
    00000D63 18 1F            [12] 2884 	jr	00188$
    00000D65                       2885 00187$:
                                   2886 ;src/rat.c:283: else if (num_valid == 2) rnd = rand() & 1;
    00000D65 F8 34            [12] 2887 	ldhl	sp,	#52
    00000D67 7E               [ 8] 2888 	ld	a, (hl)
    00000D68 B7               [ 4] 2889 	or	a, a
    00000D69 28 0C            [12] 2890 	jr	Z, 00180$
    00000D6B CDr00r00         [24] 2891 	call	_rand
    00000D6E F8 3A            [12] 2892 	ldhl	sp,#58
    00000D70 73               [ 8] 2893 	ld	(hl), e
    00000D71 7E               [ 8] 2894 	ld	a, (hl)
    00000D72 E6 01            [ 8] 2895 	and	a, #0x01
    00000D74 77               [ 8] 2896 	ld	(hl), a
    00000D75 18 0D            [12] 2897 	jr	00188$
                                   2898 ;src/rat.c:285: do { rnd = rand() & 3; } while(rnd >= num_valid); 
    00000D77                       2899 00180$:
    00000D77 CDr00r00         [24] 2900 	call	_rand
    00000D7A 7B               [ 4] 2901 	ld	a, e
    00000D7B E6 03            [ 8] 2902 	and	a, #0x03
    00000D7D F8 3A            [12] 2903 	ldhl	sp,	#58
    00000D7F 77               [ 8] 2904 	ld	(hl), a
    00000D80 3A               [ 8] 2905 	ld	a, (hl-)
    00000D81 96               [ 8] 2906 	sub	a, (hl)
    00000D82 30 F3            [12] 2907 	jr	NC, 00180$
    00000D84                       2908 00188$:
                                   2909 ;src/rat.c:287: r->current_dir = valid_dirs[rnd];
    00000D84 E5               [16] 2910 	push	hl
    00000D85 21 1E 00         [12] 2911 	ld	hl, #30
    00000D88 39               [ 8] 2912 	add	hl, sp
    00000D89 5D               [ 4] 2913 	ld	e, l
    00000D8A 54               [ 4] 2914 	ld	d, h
    00000D8B E1               [12] 2915 	pop	hl
    00000D8C F8 3A            [12] 2916 	ldhl	sp,	#58
    00000D8E 6E               [ 8] 2917 	ld	l, (hl)
    00000D8F 26 00            [ 8] 2918 	ld	h, #0x00
    00000D91 19               [ 8] 2919 	add	hl, de
    00000D92 4D               [ 4] 2920 	ld	c, l
    00000D93 44               [ 4] 2921 	ld	b, h
    00000D94 0A               [ 8] 2922 	ld	a, (bc)
    00000D95 F8 27            [12] 2923 	ldhl	sp,	#39
    00000D97 5E               [ 8] 2924 	ld	e, (hl)
    00000D98 23               [ 8] 2925 	inc	hl
    00000D99 66               [ 8] 2926 	ld	h, (hl)
    00000D9A 6B               [ 4] 2927 	ld	l, e
    00000D9B 77               [ 8] 2928 	ld	(hl), a
    00000D9C                       2929 00191$:
                                   2930 ;src/rat.c:290: if (r->current_dir == 0) r->target_y++;
    00000D9C F8 27            [12] 2931 	ldhl	sp,#39
    00000D9E 2A               [ 8] 2932 	ld	a, (hl+)
    00000D9F 5F               [ 4] 2933 	ld	e, a
    00000DA0 56               [ 8] 2934 	ld	d, (hl)
    00000DA1 1A               [ 8] 2935 	ld	a, (de)
    00000DA2 B7               [ 4] 2936 	or	a, a
    00000DA3 20 0F            [12] 2937 	jr	NZ, 00202$
    00000DA5 F8 31            [12] 2938 	ldhl	sp,#49
    00000DA7 2A               [ 8] 2939 	ld	a, (hl+)
    00000DA8 5F               [ 4] 2940 	ld	e, a
    00000DA9 3A               [ 8] 2941 	ld	a, (hl-)
    00000DAA 57               [ 4] 2942 	ld	d, a
    00000DAB 1A               [ 8] 2943 	ld	a, (de)
    00000DAC 3C               [ 4] 2944 	inc	a
    00000DAD 5E               [ 8] 2945 	ld	e, (hl)
    00000DAE 23               [ 8] 2946 	inc	hl
    00000DAF 66               [ 8] 2947 	ld	h, (hl)
    00000DB0 6B               [ 4] 2948 	ld	l, e
    00000DB1 77               [ 8] 2949 	ld	(hl), a
    00000DB2 18 32            [12] 2950 	jr	00207$
    00000DB4                       2951 00202$:
                                   2952 ;src/rat.c:291: else if (r->current_dir == 1) r->target_y--;
    00000DB4 FE 01            [ 8] 2953 	cp	a, #0x01
    00000DB6 20 0F            [12] 2954 	jr	NZ, 00199$
    00000DB8 F8 31            [12] 2955 	ldhl	sp,#49
    00000DBA 2A               [ 8] 2956 	ld	a, (hl+)
    00000DBB 5F               [ 4] 2957 	ld	e, a
    00000DBC 3A               [ 8] 2958 	ld	a, (hl-)
    00000DBD 57               [ 4] 2959 	ld	d, a
    00000DBE 1A               [ 8] 2960 	ld	a, (de)
    00000DBF 3D               [ 4] 2961 	dec	a
    00000DC0 5E               [ 8] 2962 	ld	e, (hl)
    00000DC1 23               [ 8] 2963 	inc	hl
    00000DC2 66               [ 8] 2964 	ld	h, (hl)
    00000DC3 6B               [ 4] 2965 	ld	l, e
    00000DC4 77               [ 8] 2966 	ld	(hl), a
    00000DC5 18 1F            [12] 2967 	jr	00207$
    00000DC7                       2968 00199$:
                                   2969 ;src/rat.c:243: if (r->rat_x == r->target_x && r->rat_y == r->target_y) {
    00000DC7 F8 2D            [12] 2970 	ldhl	sp,#45
    00000DC9 5E               [ 8] 2971 	ld	e, (hl)
    00000DCA 23               [ 8] 2972 	inc	hl
    00000DCB 56               [ 8] 2973 	ld	d, (hl)
    00000DCC F5               [16] 2974 	push	af
    00000DCD 1A               [ 8] 2975 	ld	a, (de)
    00000DCE 4F               [ 4] 2976 	ld	c, a
    00000DCF F1               [12] 2977 	pop	af
                                   2978 ;src/rat.c:292: else if (r->current_dir == 2) r->target_x--;
    00000DD0 FE 02            [ 8] 2979 	cp	a, #0x02
    00000DD2 20 07            [12] 2980 	jr	NZ, 00196$
    00000DD4 0D               [ 4] 2981 	dec	c
    00000DD5 3A               [ 8] 2982 	ld	a, (hl-)
    00000DD6 6E               [ 8] 2983 	ld	l, (hl)
    00000DD7 67               [ 4] 2984 	ld	h, a
    00000DD8 71               [ 8] 2985 	ld	(hl), c
    00000DD9 18 0B            [12] 2986 	jr	00207$
    00000DDB                       2987 00196$:
                                   2988 ;src/rat.c:293: else if (r->current_dir == 3) r->target_x++;
    00000DDB D6 03            [ 8] 2989 	sub	a, #0x03
    00000DDD 20 07            [12] 2990 	jr	NZ, 00207$
    00000DDF 0C               [ 4] 2991 	inc	c
    00000DE0 F8 2D            [12] 2992 	ldhl	sp,	#45
    00000DE2 2A               [ 8] 2993 	ld	a, (hl+)
    00000DE3 66               [ 8] 2994 	ld	h, (hl)
    00000DE4 6F               [ 4] 2995 	ld	l, a
    00000DE5 71               [ 8] 2996 	ld	(hl), c
    00000DE6                       2997 00207$:
                                   2998 ;src/rat.c:297: uint8_t target_px = r->target_x * 8;
    00000DE6 F8 2D            [12] 2999 	ldhl	sp,#45
    00000DE8 2A               [ 8] 3000 	ld	a, (hl+)
    00000DE9 5F               [ 4] 3001 	ld	e, a
    00000DEA 56               [ 8] 3002 	ld	d, (hl)
    00000DEB 1A               [ 8] 3003 	ld	a, (de)
    00000DEC 87               [ 4] 3004 	add	a, a
    00000DED 87               [ 4] 3005 	add	a, a
    00000DEE 87               [ 4] 3006 	add	a, a
    00000DEF F8 34            [12] 3007 	ldhl	sp,	#52
    00000DF1 77               [ 8] 3008 	ld	(hl), a
                                   3009 ;src/rat.c:298: uint8_t target_py = r->target_y * 8;
    00000DF2 F8 2F            [12] 3010 	ldhl	sp,#47
    00000DF4 2A               [ 8] 3011 	ld	a, (hl+)
    00000DF5 5F               [ 4] 3012 	ld	e, a
    00000DF6 56               [ 8] 3013 	ld	d, (hl)
    00000DF7 1A               [ 8] 3014 	ld	a, (de)
    00000DF8 87               [ 4] 3015 	add	a, a
    00000DF9 87               [ 4] 3016 	add	a, a
    00000DFA 87               [ 4] 3017 	add	a, a
    00000DFB F8 35            [12] 3018 	ldhl	sp,	#53
    00000DFD 77               [ 8] 3019 	ld	(hl), a
                                   3020 ;src/rat.c:301: if (r->pixel_x < target_px) r->pixel_x++;
    00000DFE F8 25            [12] 3021 	ldhl	sp,#37
    00000E00 2A               [ 8] 3022 	ld	a, (hl+)
    00000E01 5F               [ 4] 3023 	ld	e, a
    00000E02 56               [ 8] 3024 	ld	d, (hl)
    00000E03 21 05 00         [12] 3025 	ld	hl, #0x0005
    00000E06 19               [ 8] 3026 	add	hl, de
    00000E07 E5               [16] 3027 	push	hl
    00000E08 7D               [ 4] 3028 	ld	a, l
    00000E09 F8 38            [12] 3029 	ldhl	sp,	#56
    00000E0B 77               [ 8] 3030 	ld	(hl), a
    00000E0C E1               [12] 3031 	pop	hl
    00000E0D 7C               [ 4] 3032 	ld	a, h
    00000E0E F8 37            [12] 3033 	ldhl	sp,	#55
    00000E10 77               [ 8] 3034 	ld	(hl), a
                                   3035 ;src/rat.c:303: if (r->pixel_y < target_py) r->pixel_y++;
    00000E11 F8 25            [12] 3036 	ldhl	sp,#37
    00000E13 2A               [ 8] 3037 	ld	a, (hl+)
    00000E14 5F               [ 4] 3038 	ld	e, a
    00000E15 56               [ 8] 3039 	ld	d, (hl)
    00000E16 21 06 00         [12] 3040 	ld	hl, #0x0006
    00000E19 19               [ 8] 3041 	add	hl, de
    00000E1A E5               [16] 3042 	push	hl
    00000E1B 7D               [ 4] 3043 	ld	a, l
    00000E1C F8 3B            [12] 3044 	ldhl	sp,	#59
    00000E1E 77               [ 8] 3045 	ld	(hl), a
    00000E1F E1               [12] 3046 	pop	hl
    00000E20 7C               [ 4] 3047 	ld	a, h
    00000E21 F8 3A            [12] 3048 	ldhl	sp,	#58
    00000E23 77               [ 8] 3049 	ld	(hl), a
                                   3050 ;src/rat.c:300: if (do_move) {
    00000E24 F8 24            [12] 3051 	ldhl	sp,	#36
    00000E26 7E               [ 8] 3052 	ld	a, (hl)
    00000E27 B7               [ 4] 3053 	or	a, a
    00000E28 28 44            [12] 3054 	jr	Z, 00220$
                                   3055 ;src/rat.c:301: if (r->pixel_x < target_px) r->pixel_x++;
    00000E2A F8 36            [12] 3056 	ldhl	sp,#54
    00000E2C 2A               [ 8] 3057 	ld	a, (hl+)
    00000E2D 5F               [ 4] 3058 	ld	e, a
    00000E2E 56               [ 8] 3059 	ld	d, (hl)
    00000E2F 1A               [ 8] 3060 	ld	a, (de)
    00000E30 4F               [ 4] 3061 	ld	c, a
    00000E31 F8 34            [12] 3062 	ldhl	sp,	#52
    00000E33 96               [ 8] 3063 	sub	a, (hl)
    00000E34 30 09            [12] 3064 	jr	NC, 00212$
    00000E36 23               [ 8] 3065 	inc	hl
    00000E37 23               [ 8] 3066 	inc	hl
    00000E38 0C               [ 4] 3067 	inc	c
    00000E39 2A               [ 8] 3068 	ld	a, (hl+)
    00000E3A 66               [ 8] 3069 	ld	h, (hl)
    00000E3B 6F               [ 4] 3070 	ld	l, a
    00000E3C 71               [ 8] 3071 	ld	(hl), c
    00000E3D 18 0D            [12] 3072 	jr	00213$
    00000E3F                       3073 00212$:
                                   3074 ;src/rat.c:302: else if (r->pixel_x > target_px) r->pixel_x--;
    00000E3F F8 34            [12] 3075 	ldhl	sp,	#52
    00000E41 7E               [ 8] 3076 	ld	a, (hl)
    00000E42 91               [ 4] 3077 	sub	a, c
    00000E43 30 07            [12] 3078 	jr	NC, 00213$
    00000E45 23               [ 8] 3079 	inc	hl
    00000E46 23               [ 8] 3080 	inc	hl
    00000E47 0D               [ 4] 3081 	dec	c
    00000E48 2A               [ 8] 3082 	ld	a, (hl+)
    00000E49 66               [ 8] 3083 	ld	h, (hl)
    00000E4A 6F               [ 4] 3084 	ld	l, a
    00000E4B 71               [ 8] 3085 	ld	(hl), c
    00000E4C                       3086 00213$:
                                   3087 ;src/rat.c:303: if (r->pixel_y < target_py) r->pixel_y++;
    00000E4C F8 39            [12] 3088 	ldhl	sp,#57
    00000E4E 2A               [ 8] 3089 	ld	a, (hl+)
    00000E4F 5F               [ 4] 3090 	ld	e, a
    00000E50 56               [ 8] 3091 	ld	d, (hl)
    00000E51 1A               [ 8] 3092 	ld	a, (de)
    00000E52 4F               [ 4] 3093 	ld	c, a
    00000E53 F8 35            [12] 3094 	ldhl	sp,	#53
    00000E55 96               [ 8] 3095 	sub	a, (hl)
    00000E56 30 09            [12] 3096 	jr	NC, 00217$
    00000E58 0C               [ 4] 3097 	inc	c
    00000E59 F8 39            [12] 3098 	ldhl	sp,	#57
    00000E5B 2A               [ 8] 3099 	ld	a, (hl+)
    00000E5C 66               [ 8] 3100 	ld	h, (hl)
    00000E5D 6F               [ 4] 3101 	ld	l, a
    00000E5E 71               [ 8] 3102 	ld	(hl), c
    00000E5F 18 0D            [12] 3103 	jr	00220$
    00000E61                       3104 00217$:
                                   3105 ;src/rat.c:304: else if (r->pixel_y > target_py) r->pixel_y--;
    00000E61 F8 35            [12] 3106 	ldhl	sp,	#53
    00000E63 7E               [ 8] 3107 	ld	a, (hl)
    00000E64 91               [ 4] 3108 	sub	a, c
    00000E65 30 07            [12] 3109 	jr	NC, 00220$
    00000E67 0D               [ 4] 3110 	dec	c
    00000E68 F8 39            [12] 3111 	ldhl	sp,	#57
    00000E6A 2A               [ 8] 3112 	ld	a, (hl+)
    00000E6B 66               [ 8] 3113 	ld	h, (hl)
    00000E6C 6F               [ 4] 3114 	ld	l, a
    00000E6D 71               [ 8] 3115 	ld	(hl), c
    00000E6E                       3116 00220$:
                                   3117 ;src/rat.c:307: if (r->pixel_x == target_px && r->pixel_y == target_py) {
    00000E6E F8 36            [12] 3118 	ldhl	sp,#54
    00000E70 2A               [ 8] 3119 	ld	a, (hl+)
    00000E71 5F               [ 4] 3120 	ld	e, a
    00000E72 56               [ 8] 3121 	ld	d, (hl)
    00000E73 1A               [ 8] 3122 	ld	a, (de)
    00000E74 4F               [ 4] 3123 	ld	c, a
    00000E75 F8 34            [12] 3124 	ldhl	sp,	#52
    00000E77 7E               [ 8] 3125 	ld	a, (hl)
    00000E78 91               [ 4] 3126 	sub	a, c
    00000E79 20 27            [12] 3127 	jr	NZ, 00222$
    00000E7B F8 39            [12] 3128 	ldhl	sp,#57
    00000E7D 2A               [ 8] 3129 	ld	a, (hl+)
    00000E7E 5F               [ 4] 3130 	ld	e, a
    00000E7F 56               [ 8] 3131 	ld	d, (hl)
    00000E80 1A               [ 8] 3132 	ld	a, (de)
    00000E81 4F               [ 4] 3133 	ld	c, a
    00000E82 F8 35            [12] 3134 	ldhl	sp,	#53
    00000E84 7E               [ 8] 3135 	ld	a, (hl)
    00000E85 91               [ 4] 3136 	sub	a, c
    00000E86 20 1A            [12] 3137 	jr	NZ, 00222$
                                   3138 ;src/rat.c:308: r->rat_x = r->target_x;
    00000E88 F8 2D            [12] 3139 	ldhl	sp,#45
    00000E8A 2A               [ 8] 3140 	ld	a, (hl+)
    00000E8B 5F               [ 4] 3141 	ld	e, a
    00000E8C 56               [ 8] 3142 	ld	d, (hl)
    00000E8D 1A               [ 8] 3143 	ld	a, (de)
    00000E8E F8 2B            [12] 3144 	ldhl	sp,	#43
    00000E90 5E               [ 8] 3145 	ld	e, (hl)
    00000E91 23               [ 8] 3146 	inc	hl
    00000E92 66               [ 8] 3147 	ld	h, (hl)
    00000E93 6B               [ 4] 3148 	ld	l, e
    00000E94 77               [ 8] 3149 	ld	(hl), a
                                   3150 ;src/rat.c:309: r->rat_y = r->target_y;
    00000E95 F8 2F            [12] 3151 	ldhl	sp,#47
    00000E97 2A               [ 8] 3152 	ld	a, (hl+)
    00000E98 5F               [ 4] 3153 	ld	e, a
    00000E99 56               [ 8] 3154 	ld	d, (hl)
    00000E9A 1A               [ 8] 3155 	ld	a, (de)
    00000E9B F8 29            [12] 3156 	ldhl	sp,	#41
    00000E9D 5E               [ 8] 3157 	ld	e, (hl)
    00000E9E 23               [ 8] 3158 	inc	hl
    00000E9F 66               [ 8] 3159 	ld	h, (hl)
    00000EA0 6B               [ 4] 3160 	ld	l, e
    00000EA1 77               [ 8] 3161 	ld	(hl), a
    00000EA2                       3162 00222$:
                                   3163 ;src/rat.c:237: spawn_rat(r->rat_x, r->rat_y, get_opposite(r->current_dir));
    00000EA2 F8 27            [12] 3164 	ldhl	sp,#39
    00000EA4 2A               [ 8] 3165 	ld	a, (hl+)
    00000EA5 5F               [ 4] 3166 	ld	e, a
    00000EA6 56               [ 8] 3167 	ld	d, (hl)
    00000EA7 1A               [ 8] 3168 	ld	a, (de)
    00000EA8 F8 35            [12] 3169 	ldhl	sp,	#53
    00000EAA 77               [ 8] 3170 	ld	(hl), a
                                   3171 ;src/rat.c:326: if (do_move || r->current_dir == 255) {
    00000EAB 7E               [ 8] 3172 	ld	a, (hl)
    00000EAC 3C               [ 4] 3173 	inc	a
    00000EAD 3E 01            [ 8] 3174 	ld	a, #0x01
    00000EAF 28 01            [12] 3175 	jr	Z, 00851$
    00000EB1 AF               [ 4] 3176 	xor	a, a
    00000EB2                       3177 00851$:
    00000EB2 4F               [ 4] 3178 	ld	c, a
    00000EB3 F8 24            [12] 3179 	ldhl	sp,	#36
    00000EB5 7E               [ 8] 3180 	ld	a, (hl)
    00000EB6 B7               [ 4] 3181 	or	a, a
    00000EB7 20 04            [12] 3182 	jr	NZ, 00236$
    00000EB9 B1               [ 4] 3183 	or	a, c
    00000EBA CAr04r14         [16] 3184 	jp	Z, 00239$
    00000EBD                       3185 00236$:
                                   3186 ;src/rat.c:327: uint8_t base_x = r->pixel_x + 12;
    00000EBD F8 36            [12] 3187 	ldhl	sp,#54
    00000EBF 2A               [ 8] 3188 	ld	a, (hl+)
    00000EC0 5F               [ 4] 3189 	ld	e, a
    00000EC1 56               [ 8] 3190 	ld	d, (hl)
    00000EC2 1A               [ 8] 3191 	ld	a, (de)
    00000EC3 C6 0C            [ 8] 3192 	add	a, #0x0c
    00000EC5 77               [ 8] 3193 	ld	(hl), a
                                   3194 ;src/rat.c:328: uint8_t base_y = r->pixel_y + 20;
    00000EC6 F8 39            [12] 3195 	ldhl	sp,#57
    00000EC8 2A               [ 8] 3196 	ld	a, (hl+)
    00000EC9 5F               [ 4] 3197 	ld	e, a
    00000ECA 56               [ 8] 3198 	ld	d, (hl)
    00000ECB 1A               [ 8] 3199 	ld	a, (de)
    00000ECC C6 14            [ 8] 3200 	add	a, #0x14
    00000ECE 77               [ 8] 3201 	ld	(hl), a
                                   3202 ;src/rat.c:329: uint8_t s0 = r->sprite_base_idx;
    00000ECF F8 25            [12] 3203 	ldhl	sp,#37
    00000ED1 2A               [ 8] 3204 	ld	a, (hl+)
    00000ED2 5F               [ 4] 3205 	ld	e, a
    00000ED3 56               [ 8] 3206 	ld	d, (hl)
    00000ED4 21 08 00         [12] 3207 	ld	hl, #0x0008
    00000ED7 19               [ 8] 3208 	add	hl, de
    00000ED8 5D               [ 4] 3209 	ld	e, l
    00000ED9 54               [ 4] 3210 	ld	d, h
    00000EDA 1A               [ 8] 3211 	ld	a, (de)
    00000EDB F8 36            [12] 3212 	ldhl	sp,	#54
    00000EDD 77               [ 8] 3213 	ld	(hl), a
                                   3214 ;src/rat.c:330: uint8_t s1 = r->sprite_base_idx + 1;
    00000EDE 3C               [ 4] 3215 	inc	a
    00000EDF F8 39            [12] 3216 	ldhl	sp,	#57
    00000EE1 77               [ 8] 3217 	ld	(hl), a
                                   3218 ;src/rat.c:332: if (r->current_dir == 0 || r->current_dir == 255) { // Giù
    00000EE2 F8 35            [12] 3219 	ldhl	sp,	#53
    00000EE4 7E               [ 8] 3220 	ld	a, (hl)
    00000EE5 B7               [ 4] 3221 	or	a, a
    00000EE6 28 05            [12] 3222 	jr	Z, 00232$
    00000EE8 79               [ 4] 3223 	ld	a, c
    00000EE9 B7               [ 4] 3224 	or	a, a
    00000EEA CAr1Dr10         [16] 3225 	jp	Z, 00233$
    00000EED                       3226 00232$:
                                   3227 ;/home/enne2/.local/gbdk/include/gb/gb.h:1887: shadow_OAM[nb].tile=tile;
    00000EED F8 36            [12] 3228 	ldhl	sp,	#54
    00000EEF 3A               [ 8] 3229 	ld	a, (hl-)
    00000EF0 22               [ 8] 3230 	ld	(hl+), a
    00000EF1 36 00            [12] 3231 	ld	(hl), #0x00
    00000EF3 3E 02            [ 8] 3232 	ld	a, #0x02
    00000EF5                       3233 00852$:
    00000EF5 F8 35            [12] 3234 	ldhl	sp,	#53
    00000EF7 CB 26            [16] 3235 	sla	(hl)
    00000EF9 23               [ 8] 3236 	inc	hl
    00000EFA CB 16            [16] 3237 	rl	(hl)
    00000EFC 3D               [ 4] 3238 	dec	a
    00000EFD 20 F6            [12] 3239 	jr	NZ, 00852$
    00000EFF 11r00r00         [12] 3240 	ld	de, #_shadow_OAM
    00000F02 3A               [ 8] 3241 	ld	a, (hl-)
    00000F03 6E               [ 8] 3242 	ld	l, (hl)
    00000F04 67               [ 4] 3243 	ld	h, a
    00000F05 19               [ 8] 3244 	add	hl, de
    00000F06 E5               [16] 3245 	push	hl
    00000F07 7D               [ 4] 3246 	ld	a, l
    00000F08 F8 33            [12] 3247 	ldhl	sp,	#51
    00000F0A 77               [ 8] 3248 	ld	(hl), a
    00000F0B E1               [12] 3249 	pop	hl
    00000F0C 7C               [ 4] 3250 	ld	a, h
    00000F0D F8 32            [12] 3251 	ldhl	sp,	#50
    00000F0F 32               [ 8] 3252 	ld	(hl-), a
    00000F10 2A               [ 8] 3253 	ld	a, (hl+)
    00000F11 5F               [ 4] 3254 	ld	e, a
    00000F12 56               [ 8] 3255 	ld	d, (hl)
    00000F13 21 02 00         [12] 3256 	ld	hl, #0x0002
    00000F16 19               [ 8] 3257 	add	hl, de
    00000F17 E5               [16] 3258 	push	hl
    00000F18 7D               [ 4] 3259 	ld	a, l
    00000F19 F8 35            [12] 3260 	ldhl	sp,	#53
    00000F1B 77               [ 8] 3261 	ld	(hl), a
    00000F1C E1               [12] 3262 	pop	hl
    00000F1D 7C               [ 4] 3263 	ld	a, h
    00000F1E F8 34            [12] 3264 	ldhl	sp,	#52
    00000F20 32               [ 8] 3265 	ld	(hl-), a
    00000F21 2A               [ 8] 3266 	ld	a, (hl+)
    00000F22 66               [ 8] 3267 	ld	h, (hl)
    00000F23 6F               [ 4] 3268 	ld	l, a
    00000F24 36 02            [12] 3269 	ld	(hl), #0x02
    00000F26 F8 39            [12] 3270 	ldhl	sp,	#57
    00000F28 4E               [ 8] 3271 	ld	c, (hl)
    00000F29 AF               [ 4] 3272 	xor	a, a
    00000F2A CB 21            [ 8] 3273 	sla	c
    00000F2C 8F               [ 4] 3274 	adc	a, a
    00000F2D CB 21            [ 8] 3275 	sla	c
    00000F2F 8F               [ 4] 3276 	adc	a, a
    00000F30 F8 33            [12] 3277 	ldhl	sp,	#51
    00000F32 71               [ 8] 3278 	ld	(hl), c
    00000F33 23               [ 8] 3279 	inc	hl
    00000F34 77               [ 8] 3280 	ld	(hl), a
    00000F35 11r00r00         [12] 3281 	ld	de, #_shadow_OAM
    00000F38 3A               [ 8] 3282 	ld	a, (hl-)
    00000F39 6E               [ 8] 3283 	ld	l, (hl)
    00000F3A 67               [ 4] 3284 	ld	h, a
    00000F3B 19               [ 8] 3285 	add	hl, de
    00000F3C E5               [16] 3286 	push	hl
    00000F3D 7D               [ 4] 3287 	ld	a, l
    00000F3E F8 31            [12] 3288 	ldhl	sp,	#49
    00000F40 77               [ 8] 3289 	ld	(hl), a
    00000F41 E1               [12] 3290 	pop	hl
    00000F42 7C               [ 4] 3291 	ld	a, h
    00000F43 F8 30            [12] 3292 	ldhl	sp,	#48
    00000F45 32               [ 8] 3293 	ld	(hl-), a
    00000F46 2A               [ 8] 3294 	ld	a, (hl+)
    00000F47 5F               [ 4] 3295 	ld	e, a
    00000F48 56               [ 8] 3296 	ld	d, (hl)
    00000F49 21 02 00         [12] 3297 	ld	hl, #0x0002
    00000F4C 19               [ 8] 3298 	add	hl, de
    00000F4D E5               [16] 3299 	push	hl
    00000F4E 7D               [ 4] 3300 	ld	a, l
    00000F4F F8 33            [12] 3301 	ldhl	sp,	#51
    00000F51 77               [ 8] 3302 	ld	(hl), a
    00000F52 E1               [12] 3303 	pop	hl
    00000F53 7C               [ 4] 3304 	ld	a, h
    00000F54 F8 32            [12] 3305 	ldhl	sp,	#50
    00000F56 32               [ 8] 3306 	ld	(hl-), a
    00000F57 2A               [ 8] 3307 	ld	a, (hl+)
    00000F58 66               [ 8] 3308 	ld	h, (hl)
    00000F59 6F               [ 4] 3309 	ld	l, a
    00000F5A 36 03            [12] 3310 	ld	(hl), #0x03
                                   3311 ;/home/enne2/.local/gbdk/include/gb/gb.h:1946: shadow_OAM[nb].prop=prop;
    00000F5C 11r00r00         [12] 3312 	ld	de, #_shadow_OAM
    00000F5F F8 35            [12] 3313 	ldhl	sp,	#53
    00000F61 2A               [ 8] 3314 	ld	a,	(hl+)
    00000F62 66               [ 8] 3315 	ld	h, (hl)
    00000F63 6F               [ 4] 3316 	ld	l, a
    00000F64 19               [ 8] 3317 	add	hl, de
    00000F65 E5               [16] 3318 	push	hl
    00000F66 7D               [ 4] 3319 	ld	a, l
    00000F67 F8 31            [12] 3320 	ldhl	sp,	#49
    00000F69 77               [ 8] 3321 	ld	(hl), a
    00000F6A E1               [12] 3322 	pop	hl
    00000F6B 7C               [ 4] 3323 	ld	a, h
    00000F6C F8 30            [12] 3324 	ldhl	sp,	#48
    00000F6E 32               [ 8] 3325 	ld	(hl-), a
    00000F6F 2A               [ 8] 3326 	ld	a, (hl+)
    00000F70 5F               [ 4] 3327 	ld	e, a
    00000F71 56               [ 8] 3328 	ld	d, (hl)
    00000F72 21 03 00         [12] 3329 	ld	hl, #0x0003
    00000F75 19               [ 8] 3330 	add	hl, de
    00000F76 E5               [16] 3331 	push	hl
    00000F77 7D               [ 4] 3332 	ld	a, l
    00000F78 F8 33            [12] 3333 	ldhl	sp,	#51
    00000F7A 77               [ 8] 3334 	ld	(hl), a
    00000F7B E1               [12] 3335 	pop	hl
    00000F7C 7C               [ 4] 3336 	ld	a, h
    00000F7D F8 32            [12] 3337 	ldhl	sp,	#50
    00000F7F 32               [ 8] 3338 	ld	(hl-), a
    00000F80 2A               [ 8] 3339 	ld	a, (hl+)
    00000F81 66               [ 8] 3340 	ld	h, (hl)
    00000F82 6F               [ 4] 3341 	ld	l, a
    00000F83 36 00            [12] 3342 	ld	(hl), #0x00
    00000F85 11r00r00         [12] 3343 	ld	de, #_shadow_OAM
    00000F88 F8 33            [12] 3344 	ldhl	sp,	#51
    00000F8A 2A               [ 8] 3345 	ld	a,	(hl+)
    00000F8B 66               [ 8] 3346 	ld	h, (hl)
    00000F8C 6F               [ 4] 3347 	ld	l, a
    00000F8D 19               [ 8] 3348 	add	hl, de
    00000F8E E5               [16] 3349 	push	hl
    00000F8F 7D               [ 4] 3350 	ld	a, l
    00000F90 F8 31            [12] 3351 	ldhl	sp,	#49
    00000F92 77               [ 8] 3352 	ld	(hl), a
    00000F93 E1               [12] 3353 	pop	hl
    00000F94 7C               [ 4] 3354 	ld	a, h
    00000F95 F8 30            [12] 3355 	ldhl	sp,	#48
    00000F97 32               [ 8] 3356 	ld	(hl-), a
    00000F98 2A               [ 8] 3357 	ld	a, (hl+)
    00000F99 5F               [ 4] 3358 	ld	e, a
    00000F9A 56               [ 8] 3359 	ld	d, (hl)
    00000F9B 21 03 00         [12] 3360 	ld	hl, #0x0003
    00000F9E 19               [ 8] 3361 	add	hl, de
    00000F9F E5               [16] 3362 	push	hl
    00000FA0 7D               [ 4] 3363 	ld	a, l
    00000FA1 F8 33            [12] 3364 	ldhl	sp,	#51
    00000FA3 77               [ 8] 3365 	ld	(hl), a
    00000FA4 E1               [12] 3366 	pop	hl
    00000FA5 7C               [ 4] 3367 	ld	a, h
    00000FA6 F8 32            [12] 3368 	ldhl	sp,	#50
    00000FA8 32               [ 8] 3369 	ld	(hl-), a
    00000FA9 2A               [ 8] 3370 	ld	a, (hl+)
    00000FAA 66               [ 8] 3371 	ld	h, (hl)
    00000FAB 6F               [ 4] 3372 	ld	l, a
    00000FAC 36 00            [12] 3373 	ld	(hl), #0x00
                                   3374 ;src/rat.c:337: move_sprite(s0, base_x, base_y - 4);
    00000FAE F8 3A            [12] 3375 	ldhl	sp,	#58
    00000FB0 3A               [ 8] 3376 	ld	a, (hl-)
    00000FB1 C6 FC            [ 8] 3377 	add	a, #0xfc
    00000FB3 77               [ 8] 3378 	ld	(hl), a
                                   3379 ;/home/enne2/.local/gbdk/include/gb/gb.h:1973: OAM_item_t * itm = &shadow_OAM[nb];
    00000FB4 F8 35            [12] 3380 	ldhl	sp,#53
    00000FB6 2A               [ 8] 3381 	ld	a, (hl+)
    00000FB7 5F               [ 4] 3382 	ld	e, a
    00000FB8 56               [ 8] 3383 	ld	d, (hl)
    00000FB9 21r00r00         [12] 3384 	ld	hl, #_shadow_OAM
    00000FBC 19               [ 8] 3385 	add	hl, de
    00000FBD E5               [16] 3386 	push	hl
    00000FBE 7D               [ 4] 3387 	ld	a, l
    00000FBF F8 33            [12] 3388 	ldhl	sp,	#51
    00000FC1 77               [ 8] 3389 	ld	(hl), a
    00000FC2 E1               [12] 3390 	pop	hl
    00000FC3 7C               [ 4] 3391 	ld	a, h
    00000FC4 F8 32            [12] 3392 	ldhl	sp,	#50
    00000FC6 32               [ 8] 3393 	ld	(hl-), a
    00000FC7 7E               [ 8] 3394 	ld	a, (hl)
    00000FC8 F8 35            [12] 3395 	ldhl	sp,	#53
    00000FCA 77               [ 8] 3396 	ld	(hl), a
    00000FCB F8 32            [12] 3397 	ldhl	sp,	#50
    00000FCD 7E               [ 8] 3398 	ld	a, (hl)
    00000FCE F8 36            [12] 3399 	ldhl	sp,	#54
                                   3400 ;/home/enne2/.local/gbdk/include/gb/gb.h:1974: itm->y=y, itm->x=x;
    00000FD0 32               [ 8] 3401 	ld	(hl-), a
    00000FD1 2A               [ 8] 3402 	ld	a, (hl+)
    00000FD2 5F               [ 4] 3403 	ld	e, a
    00000FD3 56               [ 8] 3404 	ld	d, (hl)
    00000FD4 F8 39            [12] 3405 	ldhl	sp,	#57
    00000FD6 7E               [ 8] 3406 	ld	a, (hl)
    00000FD7 12               [ 8] 3407 	ld	(de), a
    00000FD8 F8 35            [12] 3408 	ldhl	sp,#53
    00000FDA 2A               [ 8] 3409 	ld	a, (hl+)
    00000FDB 5F               [ 4] 3410 	ld	e, a
    00000FDC 56               [ 8] 3411 	ld	d, (hl)
    00000FDD 6B               [ 4] 3412 	ld	l, e
    00000FDE 62               [ 4] 3413 	ld	h, d
    00000FDF 23               [ 8] 3414 	inc	hl
    00000FE0 E5               [16] 3415 	push	hl
    00000FE1 7D               [ 4] 3416 	ld	a, l
    00000FE2 F8 33            [12] 3417 	ldhl	sp,	#51
    00000FE4 77               [ 8] 3418 	ld	(hl), a
    00000FE5 E1               [12] 3419 	pop	hl
    00000FE6 7C               [ 4] 3420 	ld	a, h
    00000FE7 F8 32            [12] 3421 	ldhl	sp,	#50
    00000FE9 32               [ 8] 3422 	ld	(hl-), a
    00000FEA 2A               [ 8] 3423 	ld	a, (hl+)
    00000FEB 5F               [ 4] 3424 	ld	e, a
    00000FEC 56               [ 8] 3425 	ld	d, (hl)
    00000FED F8 37            [12] 3426 	ldhl	sp,	#55
    00000FEF 7E               [ 8] 3427 	ld	a, (hl)
    00000FF0 12               [ 8] 3428 	ld	(de), a
                                   3429 ;src/rat.c:338: move_sprite(s1, base_x, base_y + 4);
    00000FF1 F8 3A            [12] 3430 	ldhl	sp,	#58
    00000FF3 34               [12] 3431 	inc	(hl)
    00000FF4 34               [12] 3432 	inc	(hl)
    00000FF5 34               [12] 3433 	inc	(hl)
    00000FF6 34               [12] 3434 	inc	(hl)
                                   3435 ;/home/enne2/.local/gbdk/include/gb/gb.h:1973: OAM_item_t * itm = &shadow_OAM[nb];
    00000FF7 F8 33            [12] 3436 	ldhl	sp,#51
    00000FF9 2A               [ 8] 3437 	ld	a, (hl+)
    00000FFA 5F               [ 4] 3438 	ld	e, a
    00000FFB 56               [ 8] 3439 	ld	d, (hl)
    00000FFC 21r00r00         [12] 3440 	ld	hl, #_shadow_OAM
    00000FFF 19               [ 8] 3441 	add	hl, de
    00001000 E5               [16] 3442 	push	hl
    00001001 7D               [ 4] 3443 	ld	a, l
    00001002 F8 37            [12] 3444 	ldhl	sp,	#55
    00001004 77               [ 8] 3445 	ld	(hl), a
    00001005 E1               [12] 3446 	pop	hl
    00001006 7C               [ 4] 3447 	ld	a, h
    00001007 F8 36            [12] 3448 	ldhl	sp,	#54
                                   3449 ;/home/enne2/.local/gbdk/include/gb/gb.h:1974: itm->y=y, itm->x=x;
    00001009 32               [ 8] 3450 	ld	(hl-), a
    0000100A 2A               [ 8] 3451 	ld	a, (hl+)
    0000100B 5F               [ 4] 3452 	ld	e, a
    0000100C 56               [ 8] 3453 	ld	d, (hl)
    0000100D F8 3A            [12] 3454 	ldhl	sp,	#58
    0000100F 7E               [ 8] 3455 	ld	a, (hl)
    00001010 12               [ 8] 3456 	ld	(de), a
    00001011 F8 35            [12] 3457 	ldhl	sp,	#53
    00001013 2A               [ 8] 3458 	ld	a, (hl+)
    00001014 4F               [ 4] 3459 	ld	c, a
    00001015 2A               [ 8] 3460 	ld	a, (hl+)
    00001016 47               [ 4] 3461 	ld	b, a
    00001017 03               [ 8] 3462 	inc	bc
    00001018 7E               [ 8] 3463 	ld	a, (hl)
    00001019 02               [ 8] 3464 	ld	(bc), a
                                   3465 ;src/rat.c:338: move_sprite(s1, base_x, base_y + 4);
    0000101A C3r04r14         [16] 3466 	jp	00239$
    0000101D                       3467 00233$:
                                   3468 ;src/rat.c:339: } else if (r->current_dir == 1) { // Su
    0000101D F8 35            [12] 3469 	ldhl	sp,	#53
    0000101F 7E               [ 8] 3470 	ld	a, (hl)
    00001020 3D               [ 4] 3471 	dec	a
    00001021 C2r64r11         [16] 3472 	jp	NZ, 00230$
                                   3473 ;/home/enne2/.local/gbdk/include/gb/gb.h:1887: shadow_OAM[nb].tile=tile;
    00001024 F8 36            [12] 3474 	ldhl	sp,	#54
    00001026 3A               [ 8] 3475 	ld	a, (hl-)
    00001027 22               [ 8] 3476 	ld	(hl+), a
    00001028 36 00            [12] 3477 	ld	(hl), #0x00
    0000102A 3E 02            [ 8] 3478 	ld	a, #0x02
    0000102C                       3479 00856$:
    0000102C F8 35            [12] 3480 	ldhl	sp,	#53
    0000102E CB 26            [16] 3481 	sla	(hl)
    00001030 23               [ 8] 3482 	inc	hl
    00001031 CB 16            [16] 3483 	rl	(hl)
    00001033 3D               [ 4] 3484 	dec	a
    00001034 20 F6            [12] 3485 	jr	NZ, 00856$
    00001036 11r00r00         [12] 3486 	ld	de, #_shadow_OAM
    00001039 3A               [ 8] 3487 	ld	a, (hl-)
    0000103A 6E               [ 8] 3488 	ld	l, (hl)
    0000103B 67               [ 4] 3489 	ld	h, a
    0000103C 19               [ 8] 3490 	add	hl, de
    0000103D E5               [16] 3491 	push	hl
    0000103E 7D               [ 4] 3492 	ld	a, l
    0000103F F8 33            [12] 3493 	ldhl	sp,	#51
    00001041 77               [ 8] 3494 	ld	(hl), a
    00001042 E1               [12] 3495 	pop	hl
    00001043 7C               [ 4] 3496 	ld	a, h
    00001044 F8 32            [12] 3497 	ldhl	sp,	#50
    00001046 32               [ 8] 3498 	ld	(hl-), a
    00001047 2A               [ 8] 3499 	ld	a, (hl+)
    00001048 5F               [ 4] 3500 	ld	e, a
    00001049 56               [ 8] 3501 	ld	d, (hl)
    0000104A 21 02 00         [12] 3502 	ld	hl, #0x0002
    0000104D 19               [ 8] 3503 	add	hl, de
    0000104E E5               [16] 3504 	push	hl
    0000104F 7D               [ 4] 3505 	ld	a, l
    00001050 F8 35            [12] 3506 	ldhl	sp,	#53
    00001052 77               [ 8] 3507 	ld	(hl), a
    00001053 E1               [12] 3508 	pop	hl
    00001054 7C               [ 4] 3509 	ld	a, h
    00001055 F8 34            [12] 3510 	ldhl	sp,	#52
    00001057 32               [ 8] 3511 	ld	(hl-), a
    00001058 2A               [ 8] 3512 	ld	a, (hl+)
    00001059 66               [ 8] 3513 	ld	h, (hl)
    0000105A 6F               [ 4] 3514 	ld	l, a
    0000105B 36 03            [12] 3515 	ld	(hl), #0x03
    0000105D F8 39            [12] 3516 	ldhl	sp,	#57
    0000105F 4E               [ 8] 3517 	ld	c, (hl)
    00001060 AF               [ 4] 3518 	xor	a, a
    00001061 CB 21            [ 8] 3519 	sla	c
    00001063 8F               [ 4] 3520 	adc	a, a
    00001064 CB 21            [ 8] 3521 	sla	c
    00001066 8F               [ 4] 3522 	adc	a, a
    00001067 F8 33            [12] 3523 	ldhl	sp,	#51
    00001069 71               [ 8] 3524 	ld	(hl), c
    0000106A 23               [ 8] 3525 	inc	hl
    0000106B 77               [ 8] 3526 	ld	(hl), a
    0000106C 11r00r00         [12] 3527 	ld	de, #_shadow_OAM
    0000106F 3A               [ 8] 3528 	ld	a, (hl-)
    00001070 6E               [ 8] 3529 	ld	l, (hl)
    00001071 67               [ 4] 3530 	ld	h, a
    00001072 19               [ 8] 3531 	add	hl, de
    00001073 E5               [16] 3532 	push	hl
    00001074 7D               [ 4] 3533 	ld	a, l
    00001075 F8 31            [12] 3534 	ldhl	sp,	#49
    00001077 77               [ 8] 3535 	ld	(hl), a
    00001078 E1               [12] 3536 	pop	hl
    00001079 7C               [ 4] 3537 	ld	a, h
    0000107A F8 30            [12] 3538 	ldhl	sp,	#48
    0000107C 32               [ 8] 3539 	ld	(hl-), a
    0000107D 2A               [ 8] 3540 	ld	a, (hl+)
    0000107E 5F               [ 4] 3541 	ld	e, a
    0000107F 56               [ 8] 3542 	ld	d, (hl)
    00001080 21 02 00         [12] 3543 	ld	hl, #0x0002
    00001083 19               [ 8] 3544 	add	hl, de
    00001084 E5               [16] 3545 	push	hl
    00001085 7D               [ 4] 3546 	ld	a, l
    00001086 F8 33            [12] 3547 	ldhl	sp,	#51
    00001088 77               [ 8] 3548 	ld	(hl), a
    00001089 E1               [12] 3549 	pop	hl
    0000108A 7C               [ 4] 3550 	ld	a, h
    0000108B F8 32            [12] 3551 	ldhl	sp,	#50
    0000108D 32               [ 8] 3552 	ld	(hl-), a
    0000108E 2A               [ 8] 3553 	ld	a, (hl+)
    0000108F 66               [ 8] 3554 	ld	h, (hl)
    00001090 6F               [ 4] 3555 	ld	l, a
    00001091 36 02            [12] 3556 	ld	(hl), #0x02
                                   3557 ;/home/enne2/.local/gbdk/include/gb/gb.h:1946: shadow_OAM[nb].prop=prop;
    00001093 11r00r00         [12] 3558 	ld	de, #_shadow_OAM
    00001096 F8 35            [12] 3559 	ldhl	sp,	#53
    00001098 2A               [ 8] 3560 	ld	a,	(hl+)
    00001099 66               [ 8] 3561 	ld	h, (hl)
    0000109A 6F               [ 4] 3562 	ld	l, a
    0000109B 19               [ 8] 3563 	add	hl, de
    0000109C E5               [16] 3564 	push	hl
    0000109D 7D               [ 4] 3565 	ld	a, l
    0000109E F8 31            [12] 3566 	ldhl	sp,	#49
    000010A0 77               [ 8] 3567 	ld	(hl), a
    000010A1 E1               [12] 3568 	pop	hl
    000010A2 7C               [ 4] 3569 	ld	a, h
    000010A3 F8 30            [12] 3570 	ldhl	sp,	#48
    000010A5 32               [ 8] 3571 	ld	(hl-), a
    000010A6 2A               [ 8] 3572 	ld	a, (hl+)
    000010A7 5F               [ 4] 3573 	ld	e, a
    000010A8 56               [ 8] 3574 	ld	d, (hl)
    000010A9 21 03 00         [12] 3575 	ld	hl, #0x0003
    000010AC 19               [ 8] 3576 	add	hl, de
    000010AD E5               [16] 3577 	push	hl
    000010AE 7D               [ 4] 3578 	ld	a, l
    000010AF F8 33            [12] 3579 	ldhl	sp,	#51
    000010B1 77               [ 8] 3580 	ld	(hl), a
    000010B2 E1               [12] 3581 	pop	hl
    000010B3 7C               [ 4] 3582 	ld	a, h
    000010B4 F8 32            [12] 3583 	ldhl	sp,	#50
    000010B6 32               [ 8] 3584 	ld	(hl-), a
    000010B7 2A               [ 8] 3585 	ld	a, (hl+)
    000010B8 66               [ 8] 3586 	ld	h, (hl)
    000010B9 6F               [ 4] 3587 	ld	l, a
    000010BA 36 40            [12] 3588 	ld	(hl), #0x40
    000010BC 11r00r00         [12] 3589 	ld	de, #_shadow_OAM
    000010BF F8 33            [12] 3590 	ldhl	sp,	#51
    000010C1 2A               [ 8] 3591 	ld	a,	(hl+)
    000010C2 66               [ 8] 3592 	ld	h, (hl)
    000010C3 6F               [ 4] 3593 	ld	l, a
    000010C4 19               [ 8] 3594 	add	hl, de
    000010C5 E5               [16] 3595 	push	hl
    000010C6 7D               [ 4] 3596 	ld	a, l
    000010C7 F8 31            [12] 3597 	ldhl	sp,	#49
    000010C9 77               [ 8] 3598 	ld	(hl), a
    000010CA E1               [12] 3599 	pop	hl
    000010CB 7C               [ 4] 3600 	ld	a, h
    000010CC F8 30            [12] 3601 	ldhl	sp,	#48
    000010CE 32               [ 8] 3602 	ld	(hl-), a
    000010CF 2A               [ 8] 3603 	ld	a, (hl+)
    000010D0 5F               [ 4] 3604 	ld	e, a
    000010D1 56               [ 8] 3605 	ld	d, (hl)
    000010D2 21 03 00         [12] 3606 	ld	hl, #0x0003
    000010D5 19               [ 8] 3607 	add	hl, de
    000010D6 E5               [16] 3608 	push	hl
    000010D7 7D               [ 4] 3609 	ld	a, l
    000010D8 F8 33            [12] 3610 	ldhl	sp,	#51
    000010DA 77               [ 8] 3611 	ld	(hl), a
    000010DB E1               [12] 3612 	pop	hl
    000010DC 7C               [ 4] 3613 	ld	a, h
    000010DD F8 32            [12] 3614 	ldhl	sp,	#50
    000010DF 32               [ 8] 3615 	ld	(hl-), a
    000010E0 2A               [ 8] 3616 	ld	a, (hl+)
    000010E1 66               [ 8] 3617 	ld	h, (hl)
    000010E2 6F               [ 4] 3618 	ld	l, a
    000010E3 36 40            [12] 3619 	ld	(hl), #0x40
                                   3620 ;src/rat.c:344: move_sprite(s0, base_x, base_y - 4);
    000010E5 F8 3A            [12] 3621 	ldhl	sp,	#58
    000010E7 3A               [ 8] 3622 	ld	a, (hl-)
    000010E8 C6 FC            [ 8] 3623 	add	a, #0xfc
    000010EA 77               [ 8] 3624 	ld	(hl), a
                                   3625 ;/home/enne2/.local/gbdk/include/gb/gb.h:1973: OAM_item_t * itm = &shadow_OAM[nb];
    000010EB F8 35            [12] 3626 	ldhl	sp,#53
    000010ED 2A               [ 8] 3627 	ld	a, (hl+)
    000010EE 5F               [ 4] 3628 	ld	e, a
    000010EF 56               [ 8] 3629 	ld	d, (hl)
    000010F0 21r00r00         [12] 3630 	ld	hl, #_shadow_OAM
    000010F3 19               [ 8] 3631 	add	hl, de
    000010F4 E5               [16] 3632 	push	hl
    000010F5 7D               [ 4] 3633 	ld	a, l
    000010F6 F8 33            [12] 3634 	ldhl	sp,	#51
    000010F8 77               [ 8] 3635 	ld	(hl), a
    000010F9 E1               [12] 3636 	pop	hl
    000010FA 7C               [ 4] 3637 	ld	a, h
    000010FB F8 32            [12] 3638 	ldhl	sp,	#50
    000010FD 32               [ 8] 3639 	ld	(hl-), a
    000010FE 7E               [ 8] 3640 	ld	a, (hl)
    000010FF F8 35            [12] 3641 	ldhl	sp,	#53
    00001101 77               [ 8] 3642 	ld	(hl), a
    00001102 F8 32            [12] 3643 	ldhl	sp,	#50
    00001104 7E               [ 8] 3644 	ld	a, (hl)
    00001105 F8 36            [12] 3645 	ldhl	sp,	#54
                                   3646 ;/home/enne2/.local/gbdk/include/gb/gb.h:1974: itm->y=y, itm->x=x;
    00001107 32               [ 8] 3647 	ld	(hl-), a
    00001108 2A               [ 8] 3648 	ld	a, (hl+)
    00001109 5F               [ 4] 3649 	ld	e, a
    0000110A 56               [ 8] 3650 	ld	d, (hl)
    0000110B F8 39            [12] 3651 	ldhl	sp,	#57
    0000110D 7E               [ 8] 3652 	ld	a, (hl)
    0000110E 12               [ 8] 3653 	ld	(de), a
    0000110F F8 35            [12] 3654 	ldhl	sp,#53
    00001111 2A               [ 8] 3655 	ld	a, (hl+)
    00001112 5F               [ 4] 3656 	ld	e, a
    00001113 56               [ 8] 3657 	ld	d, (hl)
    00001114 6B               [ 4] 3658 	ld	l, e
    00001115 62               [ 4] 3659 	ld	h, d
    00001116 23               [ 8] 3660 	inc	hl
    00001117 E5               [16] 3661 	push	hl
    00001118 7D               [ 4] 3662 	ld	a, l
    00001119 F8 33            [12] 3663 	ldhl	sp,	#51
    0000111B 77               [ 8] 3664 	ld	(hl), a
    0000111C E1               [12] 3665 	pop	hl
    0000111D 7C               [ 4] 3666 	ld	a, h
    0000111E F8 32            [12] 3667 	ldhl	sp,	#50
    00001120 32               [ 8] 3668 	ld	(hl-), a
    00001121 2A               [ 8] 3669 	ld	a, (hl+)
    00001122 5F               [ 4] 3670 	ld	e, a
    00001123 56               [ 8] 3671 	ld	d, (hl)
    00001124 F8 37            [12] 3672 	ldhl	sp,	#55
    00001126 7E               [ 8] 3673 	ld	a, (hl)
    00001127 12               [ 8] 3674 	ld	(de), a
                                   3675 ;src/rat.c:345: move_sprite(s1, base_x, base_y + 4);
    00001128 F8 3A            [12] 3676 	ldhl	sp,	#58
    0000112A 34               [12] 3677 	inc	(hl)
    0000112B 34               [12] 3678 	inc	(hl)
    0000112C 34               [12] 3679 	inc	(hl)
    0000112D 34               [12] 3680 	inc	(hl)
                                   3681 ;/home/enne2/.local/gbdk/include/gb/gb.h:1973: OAM_item_t * itm = &shadow_OAM[nb];
    0000112E 11r00r00         [12] 3682 	ld	de, #_shadow_OAM
    00001131 F8 33            [12] 3683 	ldhl	sp,	#51
    00001133 2A               [ 8] 3684 	ld	a,	(hl+)
    00001134 66               [ 8] 3685 	ld	h, (hl)
    00001135 6F               [ 4] 3686 	ld	l, a
    00001136 19               [ 8] 3687 	add	hl, de
    00001137 E5               [16] 3688 	push	hl
    00001138 7D               [ 4] 3689 	ld	a, l
    00001139 F8 37            [12] 3690 	ldhl	sp,	#55
    0000113B 77               [ 8] 3691 	ld	(hl), a
    0000113C E1               [12] 3692 	pop	hl
    0000113D 7C               [ 4] 3693 	ld	a, h
    0000113E F8 36            [12] 3694 	ldhl	sp,	#54
                                   3695 ;/home/enne2/.local/gbdk/include/gb/gb.h:1974: itm->y=y, itm->x=x;
    00001140 32               [ 8] 3696 	ld	(hl-), a
    00001141 2A               [ 8] 3697 	ld	a, (hl+)
    00001142 5F               [ 4] 3698 	ld	e, a
    00001143 56               [ 8] 3699 	ld	d, (hl)
    00001144 F8 3A            [12] 3700 	ldhl	sp,	#58
    00001146 7E               [ 8] 3701 	ld	a, (hl)
    00001147 12               [ 8] 3702 	ld	(de), a
    00001148 F8 35            [12] 3703 	ldhl	sp,#53
    0000114A 2A               [ 8] 3704 	ld	a, (hl+)
    0000114B 5F               [ 4] 3705 	ld	e, a
    0000114C 56               [ 8] 3706 	ld	d, (hl)
    0000114D 6B               [ 4] 3707 	ld	l, e
    0000114E 62               [ 4] 3708 	ld	h, d
    0000114F 23               [ 8] 3709 	inc	hl
    00001150 E5               [16] 3710 	push	hl
    00001151 7D               [ 4] 3711 	ld	a, l
    00001152 F8 3B            [12] 3712 	ldhl	sp,	#59
    00001154 77               [ 8] 3713 	ld	(hl), a
    00001155 E1               [12] 3714 	pop	hl
    00001156 7C               [ 4] 3715 	ld	a, h
    00001157 F8 3A            [12] 3716 	ldhl	sp,	#58
    00001159 32               [ 8] 3717 	ld	(hl-), a
    0000115A 2A               [ 8] 3718 	ld	a, (hl+)
    0000115B 5F               [ 4] 3719 	ld	e, a
    0000115C 56               [ 8] 3720 	ld	d, (hl)
    0000115D F8 37            [12] 3721 	ldhl	sp,	#55
    0000115F 7E               [ 8] 3722 	ld	a, (hl)
    00001160 12               [ 8] 3723 	ld	(de), a
                                   3724 ;src/rat.c:345: move_sprite(s1, base_x, base_y + 4);
    00001161 C3r04r14         [16] 3725 	jp	00239$
    00001164                       3726 00230$:
                                   3727 ;src/rat.c:346: } else if (r->current_dir == 2) { // Sinistra
    00001164 F8 35            [12] 3728 	ldhl	sp,	#53
    00001166 7E               [ 8] 3729 	ld	a, (hl)
    00001167 D6 02            [ 8] 3730 	sub	a, #0x02
    00001169 C2rADr12         [16] 3731 	jp	NZ, 00227$
                                   3732 ;/home/enne2/.local/gbdk/include/gb/gb.h:1887: shadow_OAM[nb].tile=tile;
    0000116C F8 36            [12] 3733 	ldhl	sp,	#54
    0000116E 3A               [ 8] 3734 	ld	a, (hl-)
    0000116F 22               [ 8] 3735 	ld	(hl+), a
    00001170 36 00            [12] 3736 	ld	(hl), #0x00
    00001172 3E 02            [ 8] 3737 	ld	a, #0x02
    00001174                       3738 00860$:
    00001174 F8 35            [12] 3739 	ldhl	sp,	#53
    00001176 CB 26            [16] 3740 	sla	(hl)
    00001178 23               [ 8] 3741 	inc	hl
    00001179 CB 16            [16] 3742 	rl	(hl)
    0000117B 3D               [ 4] 3743 	dec	a
    0000117C 20 F6            [12] 3744 	jr	NZ, 00860$
    0000117E 11r00r00         [12] 3745 	ld	de, #_shadow_OAM
    00001181 3A               [ 8] 3746 	ld	a, (hl-)
    00001182 6E               [ 8] 3747 	ld	l, (hl)
    00001183 67               [ 4] 3748 	ld	h, a
    00001184 19               [ 8] 3749 	add	hl, de
    00001185 E5               [16] 3750 	push	hl
    00001186 7D               [ 4] 3751 	ld	a, l
    00001187 F8 33            [12] 3752 	ldhl	sp,	#51
    00001189 77               [ 8] 3753 	ld	(hl), a
    0000118A E1               [12] 3754 	pop	hl
    0000118B 7C               [ 4] 3755 	ld	a, h
    0000118C F8 32            [12] 3756 	ldhl	sp,	#50
    0000118E 32               [ 8] 3757 	ld	(hl-), a
    0000118F 2A               [ 8] 3758 	ld	a, (hl+)
    00001190 5F               [ 4] 3759 	ld	e, a
    00001191 56               [ 8] 3760 	ld	d, (hl)
    00001192 21 02 00         [12] 3761 	ld	hl, #0x0002
    00001195 19               [ 8] 3762 	add	hl, de
    00001196 E5               [16] 3763 	push	hl
    00001197 7D               [ 4] 3764 	ld	a, l
    00001198 F8 35            [12] 3765 	ldhl	sp,	#53
    0000119A 77               [ 8] 3766 	ld	(hl), a
    0000119B E1               [12] 3767 	pop	hl
    0000119C 7C               [ 4] 3768 	ld	a, h
    0000119D F8 34            [12] 3769 	ldhl	sp,	#52
    0000119F 32               [ 8] 3770 	ld	(hl-), a
    000011A0 2A               [ 8] 3771 	ld	a, (hl+)
    000011A1 66               [ 8] 3772 	ld	h, (hl)
    000011A2 6F               [ 4] 3773 	ld	l, a
    000011A3 36 01            [12] 3774 	ld	(hl), #0x01
    000011A5 F8 39            [12] 3775 	ldhl	sp,	#57
    000011A7 4E               [ 8] 3776 	ld	c, (hl)
    000011A8 AF               [ 4] 3777 	xor	a, a
    000011A9 CB 21            [ 8] 3778 	sla	c
    000011AB 8F               [ 4] 3779 	adc	a, a
    000011AC CB 21            [ 8] 3780 	sla	c
    000011AE 8F               [ 4] 3781 	adc	a, a
    000011AF F8 33            [12] 3782 	ldhl	sp,	#51
    000011B1 71               [ 8] 3783 	ld	(hl), c
    000011B2 23               [ 8] 3784 	inc	hl
    000011B3 77               [ 8] 3785 	ld	(hl), a
    000011B4 11r00r00         [12] 3786 	ld	de, #_shadow_OAM
    000011B7 3A               [ 8] 3787 	ld	a, (hl-)
    000011B8 6E               [ 8] 3788 	ld	l, (hl)
    000011B9 67               [ 4] 3789 	ld	h, a
    000011BA 19               [ 8] 3790 	add	hl, de
    000011BB E5               [16] 3791 	push	hl
    000011BC 7D               [ 4] 3792 	ld	a, l
    000011BD F8 31            [12] 3793 	ldhl	sp,	#49
    000011BF 77               [ 8] 3794 	ld	(hl), a
    000011C0 E1               [12] 3795 	pop	hl
    000011C1 7C               [ 4] 3796 	ld	a, h
    000011C2 F8 30            [12] 3797 	ldhl	sp,	#48
    000011C4 32               [ 8] 3798 	ld	(hl-), a
    000011C5 2A               [ 8] 3799 	ld	a, (hl+)
    000011C6 5F               [ 4] 3800 	ld	e, a
    000011C7 56               [ 8] 3801 	ld	d, (hl)
    000011C8 21 02 00         [12] 3802 	ld	hl, #0x0002
    000011CB 19               [ 8] 3803 	add	hl, de
    000011CC E5               [16] 3804 	push	hl
    000011CD 7D               [ 4] 3805 	ld	a, l
    000011CE F8 33            [12] 3806 	ldhl	sp,	#51
    000011D0 77               [ 8] 3807 	ld	(hl), a
    000011D1 E1               [12] 3808 	pop	hl
    000011D2 7C               [ 4] 3809 	ld	a, h
    000011D3 F8 32            [12] 3810 	ldhl	sp,	#50
    000011D5 32               [ 8] 3811 	ld	(hl-), a
    000011D6 2A               [ 8] 3812 	ld	a, (hl+)
    000011D7 66               [ 8] 3813 	ld	h, (hl)
    000011D8 6F               [ 4] 3814 	ld	l, a
    000011D9 36 00            [12] 3815 	ld	(hl), #0x00
                                   3816 ;/home/enne2/.local/gbdk/include/gb/gb.h:1946: shadow_OAM[nb].prop=prop;
    000011DB 11r00r00         [12] 3817 	ld	de, #_shadow_OAM
    000011DE F8 35            [12] 3818 	ldhl	sp,	#53
    000011E0 2A               [ 8] 3819 	ld	a,	(hl+)
    000011E1 66               [ 8] 3820 	ld	h, (hl)
    000011E2 6F               [ 4] 3821 	ld	l, a
    000011E3 19               [ 8] 3822 	add	hl, de
    000011E4 E5               [16] 3823 	push	hl
    000011E5 7D               [ 4] 3824 	ld	a, l
    000011E6 F8 31            [12] 3825 	ldhl	sp,	#49
    000011E8 77               [ 8] 3826 	ld	(hl), a
    000011E9 E1               [12] 3827 	pop	hl
    000011EA 7C               [ 4] 3828 	ld	a, h
    000011EB F8 30            [12] 3829 	ldhl	sp,	#48
    000011ED 32               [ 8] 3830 	ld	(hl-), a
    000011EE 2A               [ 8] 3831 	ld	a, (hl+)
    000011EF 5F               [ 4] 3832 	ld	e, a
    000011F0 56               [ 8] 3833 	ld	d, (hl)
    000011F1 21 03 00         [12] 3834 	ld	hl, #0x0003
    000011F4 19               [ 8] 3835 	add	hl, de
    000011F5 E5               [16] 3836 	push	hl
    000011F6 7D               [ 4] 3837 	ld	a, l
    000011F7 F8 33            [12] 3838 	ldhl	sp,	#51
    000011F9 77               [ 8] 3839 	ld	(hl), a
    000011FA E1               [12] 3840 	pop	hl
    000011FB 7C               [ 4] 3841 	ld	a, h
    000011FC F8 32            [12] 3842 	ldhl	sp,	#50
    000011FE 32               [ 8] 3843 	ld	(hl-), a
    000011FF 2A               [ 8] 3844 	ld	a, (hl+)
    00001200 66               [ 8] 3845 	ld	h, (hl)
    00001201 6F               [ 4] 3846 	ld	l, a
    00001202 36 20            [12] 3847 	ld	(hl), #0x20
    00001204 11r00r00         [12] 3848 	ld	de, #_shadow_OAM
    00001207 F8 33            [12] 3849 	ldhl	sp,	#51
    00001209 2A               [ 8] 3850 	ld	a,	(hl+)
    0000120A 66               [ 8] 3851 	ld	h, (hl)
    0000120B 6F               [ 4] 3852 	ld	l, a
    0000120C 19               [ 8] 3853 	add	hl, de
    0000120D E5               [16] 3854 	push	hl
    0000120E 7D               [ 4] 3855 	ld	a, l
    0000120F F8 31            [12] 3856 	ldhl	sp,	#49
    00001211 77               [ 8] 3857 	ld	(hl), a
    00001212 E1               [12] 3858 	pop	hl
    00001213 7C               [ 4] 3859 	ld	a, h
    00001214 F8 30            [12] 3860 	ldhl	sp,	#48
    00001216 32               [ 8] 3861 	ld	(hl-), a
    00001217 2A               [ 8] 3862 	ld	a, (hl+)
    00001218 5F               [ 4] 3863 	ld	e, a
    00001219 56               [ 8] 3864 	ld	d, (hl)
    0000121A 21 03 00         [12] 3865 	ld	hl, #0x0003
    0000121D 19               [ 8] 3866 	add	hl, de
    0000121E E5               [16] 3867 	push	hl
    0000121F 7D               [ 4] 3868 	ld	a, l
    00001220 F8 33            [12] 3869 	ldhl	sp,	#51
    00001222 77               [ 8] 3870 	ld	(hl), a
    00001223 E1               [12] 3871 	pop	hl
    00001224 7C               [ 4] 3872 	ld	a, h
    00001225 F8 32            [12] 3873 	ldhl	sp,	#50
    00001227 32               [ 8] 3874 	ld	(hl-), a
    00001228 2A               [ 8] 3875 	ld	a, (hl+)
    00001229 66               [ 8] 3876 	ld	h, (hl)
    0000122A 6F               [ 4] 3877 	ld	l, a
    0000122B 36 20            [12] 3878 	ld	(hl), #0x20
                                   3879 ;src/rat.c:351: move_sprite(s0, base_x - 4, base_y);
    0000122D F8 37            [12] 3880 	ldhl	sp,	#55
    0000122F 2A               [ 8] 3881 	ld	a, (hl+)
    00001230 23               [ 8] 3882 	inc	hl
    00001231 77               [ 8] 3883 	ld	(hl), a
    00001232 3A               [ 8] 3884 	ld	a, (hl-)
    00001233 2B               [ 8] 3885 	dec	hl
    00001234 C6 FC            [ 8] 3886 	add	a, #0xfc
                                   3887 ;/home/enne2/.local/gbdk/include/gb/gb.h:1973: OAM_item_t * itm = &shadow_OAM[nb];
    00001236 32               [ 8] 3888 	ld	(hl-), a
    00001237 11r00r00         [12] 3889 	ld	de, #_shadow_OAM
    0000123A 3A               [ 8] 3890 	ld	a, (hl-)
    0000123B 6E               [ 8] 3891 	ld	l, (hl)
    0000123C 67               [ 4] 3892 	ld	h, a
    0000123D 19               [ 8] 3893 	add	hl, de
    0000123E E5               [16] 3894 	push	hl
    0000123F 7D               [ 4] 3895 	ld	a, l
    00001240 F8 33            [12] 3896 	ldhl	sp,	#51
    00001242 77               [ 8] 3897 	ld	(hl), a
    00001243 E1               [12] 3898 	pop	hl
    00001244 7C               [ 4] 3899 	ld	a, h
    00001245 F8 32            [12] 3900 	ldhl	sp,	#50
    00001247 32               [ 8] 3901 	ld	(hl-), a
    00001248 7E               [ 8] 3902 	ld	a, (hl)
    00001249 F8 35            [12] 3903 	ldhl	sp,	#53
    0000124B 77               [ 8] 3904 	ld	(hl), a
    0000124C F8 32            [12] 3905 	ldhl	sp,	#50
    0000124E 7E               [ 8] 3906 	ld	a, (hl)
    0000124F F8 36            [12] 3907 	ldhl	sp,	#54
                                   3908 ;/home/enne2/.local/gbdk/include/gb/gb.h:1974: itm->y=y, itm->x=x;
    00001251 32               [ 8] 3909 	ld	(hl-), a
    00001252 2A               [ 8] 3910 	ld	a, (hl+)
    00001253 5F               [ 4] 3911 	ld	e, a
    00001254 56               [ 8] 3912 	ld	d, (hl)
    00001255 F8 3A            [12] 3913 	ldhl	sp,	#58
    00001257 7E               [ 8] 3914 	ld	a, (hl)
    00001258 12               [ 8] 3915 	ld	(de), a
    00001259 F8 35            [12] 3916 	ldhl	sp,#53
    0000125B 2A               [ 8] 3917 	ld	a, (hl+)
    0000125C 5F               [ 4] 3918 	ld	e, a
    0000125D 56               [ 8] 3919 	ld	d, (hl)
    0000125E 6B               [ 4] 3920 	ld	l, e
    0000125F 62               [ 4] 3921 	ld	h, d
    00001260 23               [ 8] 3922 	inc	hl
    00001261 E5               [16] 3923 	push	hl
    00001262 7D               [ 4] 3924 	ld	a, l
    00001263 F8 33            [12] 3925 	ldhl	sp,	#51
    00001265 77               [ 8] 3926 	ld	(hl), a
    00001266 E1               [12] 3927 	pop	hl
    00001267 7C               [ 4] 3928 	ld	a, h
    00001268 F8 32            [12] 3929 	ldhl	sp,	#50
    0000126A 32               [ 8] 3930 	ld	(hl-), a
    0000126B 2A               [ 8] 3931 	ld	a, (hl+)
    0000126C 5F               [ 4] 3932 	ld	e, a
    0000126D 56               [ 8] 3933 	ld	d, (hl)
    0000126E F8 37            [12] 3934 	ldhl	sp,	#55
                                   3935 ;src/rat.c:352: move_sprite(s1, base_x + 4, base_y);
    00001270 2A               [ 8] 3936 	ld	a, (hl+)
    00001271 23               [ 8] 3937 	inc	hl
    00001272 12               [ 8] 3938 	ld	(de), a
    00001273 34               [12] 3939 	inc	(hl)
    00001274 34               [12] 3940 	inc	(hl)
    00001275 34               [12] 3941 	inc	(hl)
    00001276 34               [12] 3942 	inc	(hl)
                                   3943 ;/home/enne2/.local/gbdk/include/gb/gb.h:1973: OAM_item_t * itm = &shadow_OAM[nb];
    00001277 11r00r00         [12] 3944 	ld	de, #_shadow_OAM
    0000127A F8 33            [12] 3945 	ldhl	sp,	#51
    0000127C 2A               [ 8] 3946 	ld	a,	(hl+)
    0000127D 66               [ 8] 3947 	ld	h, (hl)
    0000127E 6F               [ 4] 3948 	ld	l, a
    0000127F 19               [ 8] 3949 	add	hl, de
    00001280 E5               [16] 3950 	push	hl
    00001281 7D               [ 4] 3951 	ld	a, l
    00001282 F8 38            [12] 3952 	ldhl	sp,	#56
    00001284 77               [ 8] 3953 	ld	(hl), a
    00001285 E1               [12] 3954 	pop	hl
    00001286 7C               [ 4] 3955 	ld	a, h
    00001287 F8 37            [12] 3956 	ldhl	sp,	#55
                                   3957 ;/home/enne2/.local/gbdk/include/gb/gb.h:1974: itm->y=y, itm->x=x;
    00001289 32               [ 8] 3958 	ld	(hl-), a
    0000128A 2A               [ 8] 3959 	ld	a, (hl+)
    0000128B 5F               [ 4] 3960 	ld	e, a
    0000128C 56               [ 8] 3961 	ld	d, (hl)
    0000128D F8 3A            [12] 3962 	ldhl	sp,	#58
    0000128F 7E               [ 8] 3963 	ld	a, (hl)
    00001290 12               [ 8] 3964 	ld	(de), a
    00001291 F8 36            [12] 3965 	ldhl	sp,#54
    00001293 2A               [ 8] 3966 	ld	a, (hl+)
    00001294 5F               [ 4] 3967 	ld	e, a
    00001295 56               [ 8] 3968 	ld	d, (hl)
    00001296 6B               [ 4] 3969 	ld	l, e
    00001297 62               [ 4] 3970 	ld	h, d
    00001298 23               [ 8] 3971 	inc	hl
    00001299 E5               [16] 3972 	push	hl
    0000129A 7D               [ 4] 3973 	ld	a, l
    0000129B F8 36            [12] 3974 	ldhl	sp,	#54
    0000129D 77               [ 8] 3975 	ld	(hl), a
    0000129E E1               [12] 3976 	pop	hl
    0000129F 7C               [ 4] 3977 	ld	a, h
    000012A0 F8 35            [12] 3978 	ldhl	sp,	#53
    000012A2 32               [ 8] 3979 	ld	(hl-), a
    000012A3 2A               [ 8] 3980 	ld	a, (hl+)
    000012A4 5F               [ 4] 3981 	ld	e, a
    000012A5 56               [ 8] 3982 	ld	d, (hl)
    000012A6 F8 39            [12] 3983 	ldhl	sp,	#57
    000012A8 7E               [ 8] 3984 	ld	a, (hl)
    000012A9 12               [ 8] 3985 	ld	(de), a
                                   3986 ;src/rat.c:352: move_sprite(s1, base_x + 4, base_y);
    000012AA C3r04r14         [16] 3987 	jp	00239$
    000012AD                       3988 00227$:
                                   3989 ;src/rat.c:353: } else if (r->current_dir == 3) { // Destra
    000012AD F8 35            [12] 3990 	ldhl	sp,	#53
    000012AF 7E               [ 8] 3991 	ld	a, (hl)
    000012B0 D6 03            [ 8] 3992 	sub	a, #0x03
    000012B2 C2r04r14         [16] 3993 	jp	NZ, 00239$
                                   3994 ;/home/enne2/.local/gbdk/include/gb/gb.h:1887: shadow_OAM[nb].tile=tile;
    000012B5 F8 36            [12] 3995 	ldhl	sp,	#54
    000012B7 3A               [ 8] 3996 	ld	a, (hl-)
    000012B8 22               [ 8] 3997 	ld	(hl+), a
    000012B9 AF               [ 4] 3998 	xor	a, a
    000012BA 32               [ 8] 3999 	ld	(hl-), a
    000012BB 3A               [ 8] 4000 	ld	a, (hl-)
    000012BC 2B               [ 8] 4001 	dec	hl
    000012BD 22               [ 8] 4002 	ld	(hl+), a
    000012BE 36 00            [12] 4003 	ld	(hl), #0x00
    000012C0 3E 02            [ 8] 4004 	ld	a, #0x02
    000012C2                       4005 00864$:
    000012C2 F8 33            [12] 4006 	ldhl	sp,	#51
    000012C4 CB 26            [16] 4007 	sla	(hl)
    000012C6 23               [ 8] 4008 	inc	hl
    000012C7 CB 16            [16] 4009 	rl	(hl)
    000012C9 3D               [ 4] 4010 	dec	a
    000012CA 20 F6            [12] 4011 	jr	NZ, 00864$
    000012CC 11r00r00         [12] 4012 	ld	de, #_shadow_OAM
    000012CF 3A               [ 8] 4013 	ld	a, (hl-)
    000012D0 6E               [ 8] 4014 	ld	l, (hl)
    000012D1 67               [ 4] 4015 	ld	h, a
    000012D2 19               [ 8] 4016 	add	hl, de
    000012D3 E5               [16] 4017 	push	hl
    000012D4 7D               [ 4] 4018 	ld	a, l
    000012D5 F8 33            [12] 4019 	ldhl	sp,	#51
    000012D7 77               [ 8] 4020 	ld	(hl), a
    000012D8 E1               [12] 4021 	pop	hl
    000012D9 7C               [ 4] 4022 	ld	a, h
    000012DA F8 32            [12] 4023 	ldhl	sp,	#50
    000012DC 32               [ 8] 4024 	ld	(hl-), a
    000012DD 2A               [ 8] 4025 	ld	a, (hl+)
    000012DE 5F               [ 4] 4026 	ld	e, a
    000012DF 56               [ 8] 4027 	ld	d, (hl)
    000012E0 21 02 00         [12] 4028 	ld	hl, #0x0002
    000012E3 19               [ 8] 4029 	add	hl, de
    000012E4 E5               [16] 4030 	push	hl
    000012E5 7D               [ 4] 4031 	ld	a, l
    000012E6 F8 37            [12] 4032 	ldhl	sp,	#55
    000012E8 77               [ 8] 4033 	ld	(hl), a
    000012E9 E1               [12] 4034 	pop	hl
    000012EA 7C               [ 4] 4035 	ld	a, h
    000012EB F8 36            [12] 4036 	ldhl	sp,	#54
    000012ED 32               [ 8] 4037 	ld	(hl-), a
    000012EE 2A               [ 8] 4038 	ld	a, (hl+)
    000012EF 66               [ 8] 4039 	ld	h, (hl)
    000012F0 6F               [ 4] 4040 	ld	l, a
    000012F1 36 00            [12] 4041 	ld	(hl), #0x00
    000012F3 F8 39            [12] 4042 	ldhl	sp,	#57
    000012F5 7E               [ 8] 4043 	ld	a, (hl)
    000012F6 F8 35            [12] 4044 	ldhl	sp,	#53
    000012F8 22               [ 8] 4045 	ld	(hl+), a
    000012F9 36 00            [12] 4046 	ld	(hl), #0x00
    000012FB 3E 02            [ 8] 4047 	ld	a, #0x02
    000012FD                       4048 00865$:
    000012FD F8 35            [12] 4049 	ldhl	sp,	#53
    000012FF CB 26            [16] 4050 	sla	(hl)
    00001301 23               [ 8] 4051 	inc	hl
    00001302 CB 16            [16] 4052 	rl	(hl)
    00001304 3D               [ 4] 4053 	dec	a
    00001305 20 F6            [12] 4054 	jr	NZ, 00865$
    00001307 11r00r00         [12] 4055 	ld	de, #_shadow_OAM
    0000130A 3A               [ 8] 4056 	ld	a, (hl-)
    0000130B 6E               [ 8] 4057 	ld	l, (hl)
    0000130C 67               [ 4] 4058 	ld	h, a
    0000130D 19               [ 8] 4059 	add	hl, de
    0000130E E5               [16] 4060 	push	hl
    0000130F 7D               [ 4] 4061 	ld	a, l
    00001310 F8 31            [12] 4062 	ldhl	sp,	#49
    00001312 77               [ 8] 4063 	ld	(hl), a
    00001313 E1               [12] 4064 	pop	hl
    00001314 7C               [ 4] 4065 	ld	a, h
    00001315 F8 30            [12] 4066 	ldhl	sp,	#48
    00001317 32               [ 8] 4067 	ld	(hl-), a
    00001318 2A               [ 8] 4068 	ld	a, (hl+)
    00001319 5F               [ 4] 4069 	ld	e, a
    0000131A 56               [ 8] 4070 	ld	d, (hl)
    0000131B 21 02 00         [12] 4071 	ld	hl, #0x0002
    0000131E 19               [ 8] 4072 	add	hl, de
    0000131F E5               [16] 4073 	push	hl
    00001320 7D               [ 4] 4074 	ld	a, l
    00001321 F8 33            [12] 4075 	ldhl	sp,	#51
    00001323 77               [ 8] 4076 	ld	(hl), a
    00001324 E1               [12] 4077 	pop	hl
    00001325 7C               [ 4] 4078 	ld	a, h
    00001326 F8 32            [12] 4079 	ldhl	sp,	#50
    00001328 32               [ 8] 4080 	ld	(hl-), a
    00001329 2A               [ 8] 4081 	ld	a, (hl+)
    0000132A 66               [ 8] 4082 	ld	h, (hl)
    0000132B 6F               [ 4] 4083 	ld	l, a
    0000132C 36 01            [12] 4084 	ld	(hl), #0x01
                                   4085 ;/home/enne2/.local/gbdk/include/gb/gb.h:1946: shadow_OAM[nb].prop=prop;
    0000132E 11r00r00         [12] 4086 	ld	de, #_shadow_OAM
    00001331 F8 33            [12] 4087 	ldhl	sp,	#51
    00001333 2A               [ 8] 4088 	ld	a,	(hl+)
    00001334 66               [ 8] 4089 	ld	h, (hl)
    00001335 6F               [ 4] 4090 	ld	l, a
    00001336 19               [ 8] 4091 	add	hl, de
    00001337 E5               [16] 4092 	push	hl
    00001338 7D               [ 4] 4093 	ld	a, l
    00001339 F8 31            [12] 4094 	ldhl	sp,	#49
    0000133B 77               [ 8] 4095 	ld	(hl), a
    0000133C E1               [12] 4096 	pop	hl
    0000133D 7C               [ 4] 4097 	ld	a, h
    0000133E F8 30            [12] 4098 	ldhl	sp,	#48
    00001340 32               [ 8] 4099 	ld	(hl-), a
    00001341 2A               [ 8] 4100 	ld	a, (hl+)
    00001342 5F               [ 4] 4101 	ld	e, a
    00001343 56               [ 8] 4102 	ld	d, (hl)
    00001344 21 03 00         [12] 4103 	ld	hl, #0x0003
    00001347 19               [ 8] 4104 	add	hl, de
    00001348 E5               [16] 4105 	push	hl
    00001349 7D               [ 4] 4106 	ld	a, l
    0000134A F8 33            [12] 4107 	ldhl	sp,	#51
    0000134C 77               [ 8] 4108 	ld	(hl), a
    0000134D E1               [12] 4109 	pop	hl
    0000134E 7C               [ 4] 4110 	ld	a, h
    0000134F F8 32            [12] 4111 	ldhl	sp,	#50
    00001351 32               [ 8] 4112 	ld	(hl-), a
    00001352 2A               [ 8] 4113 	ld	a, (hl+)
    00001353 66               [ 8] 4114 	ld	h, (hl)
    00001354 6F               [ 4] 4115 	ld	l, a
    00001355 36 00            [12] 4116 	ld	(hl), #0x00
    00001357 11r00r00         [12] 4117 	ld	de, #_shadow_OAM
    0000135A F8 35            [12] 4118 	ldhl	sp,	#53
    0000135C 2A               [ 8] 4119 	ld	a,	(hl+)
    0000135D 66               [ 8] 4120 	ld	h, (hl)
    0000135E 6F               [ 4] 4121 	ld	l, a
    0000135F 19               [ 8] 4122 	add	hl, de
    00001360 E5               [16] 4123 	push	hl
    00001361 7D               [ 4] 4124 	ld	a, l
    00001362 F8 31            [12] 4125 	ldhl	sp,	#49
    00001364 77               [ 8] 4126 	ld	(hl), a
    00001365 E1               [12] 4127 	pop	hl
    00001366 7C               [ 4] 4128 	ld	a, h
    00001367 F8 30            [12] 4129 	ldhl	sp,	#48
    00001369 32               [ 8] 4130 	ld	(hl-), a
    0000136A 2A               [ 8] 4131 	ld	a, (hl+)
    0000136B 5F               [ 4] 4132 	ld	e, a
    0000136C 56               [ 8] 4133 	ld	d, (hl)
    0000136D 21 03 00         [12] 4134 	ld	hl, #0x0003
    00001370 19               [ 8] 4135 	add	hl, de
    00001371 E5               [16] 4136 	push	hl
    00001372 7D               [ 4] 4137 	ld	a, l
    00001373 F8 33            [12] 4138 	ldhl	sp,	#51
    00001375 77               [ 8] 4139 	ld	(hl), a
    00001376 E1               [12] 4140 	pop	hl
    00001377 7C               [ 4] 4141 	ld	a, h
    00001378 F8 32            [12] 4142 	ldhl	sp,	#50
    0000137A 32               [ 8] 4143 	ld	(hl-), a
    0000137B 2A               [ 8] 4144 	ld	a, (hl+)
    0000137C 66               [ 8] 4145 	ld	h, (hl)
    0000137D 6F               [ 4] 4146 	ld	l, a
    0000137E 36 00            [12] 4147 	ld	(hl), #0x00
                                   4148 ;src/rat.c:358: move_sprite(s0, base_x - 4, base_y);
    00001380 F8 37            [12] 4149 	ldhl	sp,	#55
    00001382 2A               [ 8] 4150 	ld	a, (hl+)
    00001383 23               [ 8] 4151 	inc	hl
    00001384 77               [ 8] 4152 	ld	(hl), a
    00001385 3A               [ 8] 4153 	ld	a, (hl-)
    00001386 2B               [ 8] 4154 	dec	hl
    00001387 C6 FC            [ 8] 4155 	add	a, #0xfc
    00001389 77               [ 8] 4156 	ld	(hl), a
                                   4157 ;/home/enne2/.local/gbdk/include/gb/gb.h:1973: OAM_item_t * itm = &shadow_OAM[nb];
    0000138A 11r00r00         [12] 4158 	ld	de, #_shadow_OAM
    0000138D F8 33            [12] 4159 	ldhl	sp,	#51
    0000138F 2A               [ 8] 4160 	ld	a,	(hl+)
    00001390 66               [ 8] 4161 	ld	h, (hl)
    00001391 6F               [ 4] 4162 	ld	l, a
    00001392 19               [ 8] 4163 	add	hl, de
    00001393 E5               [16] 4164 	push	hl
    00001394 7D               [ 4] 4165 	ld	a, l
    00001395 F8 33            [12] 4166 	ldhl	sp,	#51
    00001397 77               [ 8] 4167 	ld	(hl), a
    00001398 E1               [12] 4168 	pop	hl
    00001399 7C               [ 4] 4169 	ld	a, h
    0000139A F8 32            [12] 4170 	ldhl	sp,	#50
    0000139C 32               [ 8] 4171 	ld	(hl-), a
    0000139D 2A               [ 8] 4172 	ld	a, (hl+)
    0000139E 23               [ 8] 4173 	inc	hl
    0000139F 32               [ 8] 4174 	ld	(hl-), a
    000013A0 2A               [ 8] 4175 	ld	a, (hl+)
    000013A1 23               [ 8] 4176 	inc	hl
                                   4177 ;/home/enne2/.local/gbdk/include/gb/gb.h:1974: itm->y=y, itm->x=x;
    000013A2 32               [ 8] 4178 	ld	(hl-), a
    000013A3 2A               [ 8] 4179 	ld	a, (hl+)
    000013A4 5F               [ 4] 4180 	ld	e, a
    000013A5 56               [ 8] 4181 	ld	d, (hl)
    000013A6 F8 3A            [12] 4182 	ldhl	sp,	#58
    000013A8 7E               [ 8] 4183 	ld	a, (hl)
    000013A9 12               [ 8] 4184 	ld	(de), a
    000013AA F8 33            [12] 4185 	ldhl	sp,#51
    000013AC 2A               [ 8] 4186 	ld	a, (hl+)
    000013AD 5F               [ 4] 4187 	ld	e, a
    000013AE 56               [ 8] 4188 	ld	d, (hl)
    000013AF 6B               [ 4] 4189 	ld	l, e
    000013B0 62               [ 4] 4190 	ld	h, d
    000013B1 23               [ 8] 4191 	inc	hl
    000013B2 E5               [16] 4192 	push	hl
    000013B3 7D               [ 4] 4193 	ld	a, l
    000013B4 F8 33            [12] 4194 	ldhl	sp,	#51
    000013B6 77               [ 8] 4195 	ld	(hl), a
    000013B7 E1               [12] 4196 	pop	hl
    000013B8 7C               [ 4] 4197 	ld	a, h
    000013B9 F8 32            [12] 4198 	ldhl	sp,	#50
    000013BB 32               [ 8] 4199 	ld	(hl-), a
    000013BC 2A               [ 8] 4200 	ld	a, (hl+)
    000013BD 5F               [ 4] 4201 	ld	e, a
    000013BE 56               [ 8] 4202 	ld	d, (hl)
    000013BF F8 37            [12] 4203 	ldhl	sp,	#55
                                   4204 ;src/rat.c:359: move_sprite(s1, base_x + 4, base_y);
    000013C1 2A               [ 8] 4205 	ld	a, (hl+)
    000013C2 23               [ 8] 4206 	inc	hl
    000013C3 12               [ 8] 4207 	ld	(de), a
    000013C4 34               [12] 4208 	inc	(hl)
    000013C5 34               [12] 4209 	inc	(hl)
    000013C6 34               [12] 4210 	inc	(hl)
    000013C7 34               [12] 4211 	inc	(hl)
                                   4212 ;/home/enne2/.local/gbdk/include/gb/gb.h:1973: OAM_item_t * itm = &shadow_OAM[nb];
    000013C8 11r00r00         [12] 4213 	ld	de, #_shadow_OAM
    000013CB F8 35            [12] 4214 	ldhl	sp,	#53
    000013CD 2A               [ 8] 4215 	ld	a,	(hl+)
    000013CE 66               [ 8] 4216 	ld	h, (hl)
    000013CF 6F               [ 4] 4217 	ld	l, a
    000013D0 19               [ 8] 4218 	add	hl, de
    000013D1 E5               [16] 4219 	push	hl
    000013D2 7D               [ 4] 4220 	ld	a, l
    000013D3 F8 35            [12] 4221 	ldhl	sp,	#53
    000013D5 77               [ 8] 4222 	ld	(hl), a
    000013D6 E1               [12] 4223 	pop	hl
    000013D7 7C               [ 4] 4224 	ld	a, h
    000013D8 F8 34            [12] 4225 	ldhl	sp,	#52
    000013DA 32               [ 8] 4226 	ld	(hl-), a
    000013DB 7E               [ 8] 4227 	ld	a, (hl)
    000013DC F8 36            [12] 4228 	ldhl	sp,	#54
    000013DE 32               [ 8] 4229 	ld	(hl-), a
    000013DF 2B               [ 8] 4230 	dec	hl
    000013E0 7E               [ 8] 4231 	ld	a, (hl)
    000013E1 F8 37            [12] 4232 	ldhl	sp,	#55
                                   4233 ;/home/enne2/.local/gbdk/include/gb/gb.h:1974: itm->y=y, itm->x=x;
    000013E3 32               [ 8] 4234 	ld	(hl-), a
    000013E4 2A               [ 8] 4235 	ld	a, (hl+)
    000013E5 5F               [ 4] 4236 	ld	e, a
    000013E6 56               [ 8] 4237 	ld	d, (hl)
    000013E7 F8 3A            [12] 4238 	ldhl	sp,	#58
    000013E9 7E               [ 8] 4239 	ld	a, (hl)
    000013EA 12               [ 8] 4240 	ld	(de), a
    000013EB F8 36            [12] 4241 	ldhl	sp,#54
    000013ED 2A               [ 8] 4242 	ld	a, (hl+)
    000013EE 5F               [ 4] 4243 	ld	e, a
    000013EF 56               [ 8] 4244 	ld	d, (hl)
    000013F0 6B               [ 4] 4245 	ld	l, e
    000013F1 62               [ 4] 4246 	ld	h, d
    000013F2 23               [ 8] 4247 	inc	hl
    000013F3 E5               [16] 4248 	push	hl
    000013F4 7D               [ 4] 4249 	ld	a, l
    000013F5 F8 36            [12] 4250 	ldhl	sp,	#54
    000013F7 77               [ 8] 4251 	ld	(hl), a
    000013F8 E1               [12] 4252 	pop	hl
    000013F9 7C               [ 4] 4253 	ld	a, h
    000013FA F8 35            [12] 4254 	ldhl	sp,	#53
    000013FC 32               [ 8] 4255 	ld	(hl-), a
    000013FD 2A               [ 8] 4256 	ld	a, (hl+)
    000013FE 5F               [ 4] 4257 	ld	e, a
    000013FF 56               [ 8] 4258 	ld	d, (hl)
    00001400 F8 39            [12] 4259 	ldhl	sp,	#57
    00001402 7E               [ 8] 4260 	ld	a, (hl)
    00001403 12               [ 8] 4261 	ld	(de), a
                                   4262 ;src/rat.c:359: move_sprite(s1, base_x + 4, base_y);
    00001404                       4263 00239$:
                                   4264 ;src/rat.c:221: for (uint8_t i = 0; i < MAX_RATS; i++) {
    00001404 F8 38            [12] 4265 	ldhl	sp,	#56
    00001406 34               [12] 4266 	inc	(hl)
    00001407 C3r8Ar09         [16] 4267 	jp	00282$
    0000140A                       4268 00283$:
                                   4269 ;src/rat.c:363: }
    0000140A E8 3B            [16] 4270 	add	sp, #59
    0000140C C9               [16] 4271 	ret
                                   4272 ;src/rat.c:365: void kill_rats_at(uint8_t x, uint8_t y) {
                                   4273 ;	---------------------------------
                                   4274 ; Function kill_rats_at
                                   4275 ; ---------------------------------
    0000140D                       4276 _kill_rats_at::
    0000140D E8 F8            [16] 4277 	add	sp, #-8
    0000140F F8 05            [12] 4278 	ldhl	sp,	#5
    00001411 32               [ 8] 4279 	ld	(hl-), a
                                   4280 ;src/rat.c:367: for (uint8_t i = 0; i < MAX_RATS; i++) {
    00001412 7B               [ 4] 4281 	ld	a, e
    00001413 22               [ 8] 4282 	ld	(hl+), a
    00001414 23               [ 8] 4283 	inc	hl
    00001415 AF               [ 4] 4284 	xor	a, a
    00001416 22               [ 8] 4285 	ld	(hl+), a
    00001417 77               [ 8] 4286 	ld	(hl), a
    00001418                       4287 00115$:
    00001418 F8 07            [12] 4288 	ldhl	sp,	#7
    0000141A 7E               [ 8] 4289 	ld	a, (hl)
    0000141B D6 0A            [ 8] 4290 	sub	a, #0x0a
    0000141D D2rB3r14         [16] 4291 	jp	NC, 00109$
                                   4292 ;src/rat.c:368: if (rats[i].active) {
    00001420 4E               [ 8] 4293 	ld	c, (hl)
    00001421 06 00            [ 8] 4294 	ld	b, #0x00
    00001423 69               [ 4] 4295 	ld	l, c
    00001424 60               [ 4] 4296 	ld	h, b
    00001425 29               [ 8] 4297 	add	hl, hl
    00001426 09               [ 8] 4298 	add	hl, bc
    00001427 29               [ 8] 4299 	add	hl, hl
    00001428 29               [ 8] 4300 	add	hl, hl
    00001429 E5               [16] 4301 	push	hl
    0000142A 7D               [ 4] 4302 	ld	a, l
    0000142B F8 04            [12] 4303 	ldhl	sp,	#4
    0000142D 77               [ 8] 4304 	ld	(hl), a
    0000142E E1               [12] 4305 	pop	hl
    0000142F 7C               [ 4] 4306 	ld	a, h
    00001430 F8 03            [12] 4307 	ldhl	sp,	#3
    00001432 32               [ 8] 4308 	ld	(hl-), a
    00001433 2A               [ 8] 4309 	ld	a, (hl+)
    00001434 5F               [ 4] 4310 	ld	e, a
    00001435 56               [ 8] 4311 	ld	d, (hl)
    00001436 21r00r00         [12] 4312 	ld	hl, #_rats
    00001439 19               [ 8] 4313 	add	hl, de
    0000143A 33               [ 8] 4314 	inc	sp
    0000143B 33               [ 8] 4315 	inc	sp
    0000143C E5               [16] 4316 	push	hl
    0000143D F8 00            [12] 4317 	ldhl	sp,	#0
    0000143F 2A               [ 8] 4318 	ld	a, (hl+)
    00001440 23               [ 8] 4319 	inc	hl
    00001441 32               [ 8] 4320 	ld	(hl-), a
    00001442 2A               [ 8] 4321 	ld	a, (hl+)
    00001443 23               [ 8] 4322 	inc	hl
    00001444 32               [ 8] 4323 	ld	(hl-), a
    00001445 2A               [ 8] 4324 	ld	a, (hl+)
    00001446 5F               [ 4] 4325 	ld	e, a
    00001447 56               [ 8] 4326 	ld	d, (hl)
    00001448 1A               [ 8] 4327 	ld	a, (de)
    00001449 B7               [ 4] 4328 	or	a, a
    0000144A 28 61            [12] 4329 	jr	Z, 00116$
                                   4330 ;src/rat.c:371: if ((rats[i].rat_x == x && rats[i].rat_y == y) ||
    0000144C E1               [12] 4331 	pop	hl
    0000144D E5               [16] 4332 	push	hl
    0000144E 23               [ 8] 4333 	inc	hl
    0000144F 4E               [ 8] 4334 	ld	c, (hl)
    00001450 F8 05            [12] 4335 	ldhl	sp,	#5
    00001452 7E               [ 8] 4336 	ld	a, (hl)
    00001453 91               [ 4] 4337 	sub	a, c
    00001454 20 0B            [12] 4338 	jr	NZ, 00106$
    00001456 E1               [12] 4339 	pop	hl
    00001457 E5               [16] 4340 	push	hl
    00001458 23               [ 8] 4341 	inc	hl
    00001459 23               [ 8] 4342 	inc	hl
    0000145A 4E               [ 8] 4343 	ld	c, (hl)
    0000145B F8 04            [12] 4344 	ldhl	sp,	#4
    0000145D 7E               [ 8] 4345 	ld	a, (hl)
    0000145E 91               [ 4] 4346 	sub	a, c
    0000145F 28 1C            [12] 4347 	jr	Z, 00101$
    00001461                       4348 00106$:
                                   4349 ;src/rat.c:372: (rats[i].target_x == x && rats[i].target_y == y)) {
    00001461 E1               [12] 4350 	pop	hl
    00001462 E5               [16] 4351 	push	hl
    00001463 23               [ 8] 4352 	inc	hl
    00001464 23               [ 8] 4353 	inc	hl
    00001465 23               [ 8] 4354 	inc	hl
    00001466 4E               [ 8] 4355 	ld	c, (hl)
    00001467 F8 05            [12] 4356 	ldhl	sp,	#5
    00001469 7E               [ 8] 4357 	ld	a, (hl)
    0000146A 91               [ 4] 4358 	sub	a, c
    0000146B 20 3D            [12] 4359 	jr	NZ, 00102$
    0000146D D1               [12] 4360 	pop	de
    0000146E D5               [16] 4361 	push	de
    0000146F 21 04 00         [12] 4362 	ld	hl, #0x0004
    00001472 19               [ 8] 4363 	add	hl, de
    00001473 4D               [ 4] 4364 	ld	c, l
    00001474 44               [ 4] 4365 	ld	b, h
    00001475 0A               [ 8] 4366 	ld	a, (bc)
    00001476 4F               [ 4] 4367 	ld	c, a
    00001477 F8 04            [12] 4368 	ldhl	sp,	#4
    00001479 7E               [ 8] 4369 	ld	a, (hl)
    0000147A 91               [ 4] 4370 	sub	a, c
    0000147B 20 2D            [12] 4371 	jr	NZ, 00102$
    0000147D                       4372 00101$:
                                   4373 ;src/rat.c:373: rats[i].active = 0;
    0000147D F8 02            [12] 4374 	ldhl	sp,	#2
    0000147F 2A               [ 8] 4375 	ld	a, (hl+)
    00001480 66               [ 8] 4376 	ld	h, (hl)
    00001481 6F               [ 4] 4377 	ld	l, a
    00001482 36 00            [12] 4378 	ld	(hl), #0x00
                                   4379 ;src/rat.c:374: move_sprite(rats[i].sprite_base_idx, 0, 0);
    00001484 D1               [12] 4380 	pop	de
    00001485 D5               [16] 4381 	push	de
    00001486 21 08 00         [12] 4382 	ld	hl, #0x0008
    00001489 19               [ 8] 4383 	add	hl, de
    0000148A 4D               [ 4] 4384 	ld	c, l
    0000148B 44               [ 4] 4385 	ld	b, h
    0000148C 0A               [ 8] 4386 	ld	a, (bc)
                                   4387 ;/home/enne2/.local/gbdk/include/gb/gb.h:1973: OAM_item_t * itm = &shadow_OAM[nb];
    0000148D 6F               [ 4] 4388 	ld	l, a
    0000148E 26 00            [ 8] 4389 	ld	h, #0x00
    00001490 29               [ 8] 4390 	add	hl, hl
    00001491 29               [ 8] 4391 	add	hl, hl
    00001492 11r00r00         [12] 4392 	ld	de, #_shadow_OAM
    00001495 19               [ 8] 4393 	add	hl, de
                                   4394 ;/home/enne2/.local/gbdk/include/gb/gb.h:1974: itm->y=y, itm->x=x;
    00001496 AF               [ 4] 4395 	xor	a, a
    00001497 22               [ 8] 4396 	ld	(hl+), a
    00001498 77               [ 8] 4397 	ld	(hl), a
                                   4398 ;src/rat.c:375: move_sprite(rats[i].sprite_base_idx + 1, 0, 0);
    00001499 0A               [ 8] 4399 	ld	a, (bc)
    0000149A 4F               [ 4] 4400 	ld	c, a
    0000149B 0C               [ 4] 4401 	inc	c
                                   4402 ;/home/enne2/.local/gbdk/include/gb/gb.h:1973: OAM_item_t * itm = &shadow_OAM[nb];
    0000149C AF               [ 4] 4403 	xor	a, a
    0000149D 69               [ 4] 4404 	ld	l, c
    0000149E 67               [ 4] 4405 	ld	h, a
    0000149F 29               [ 8] 4406 	add	hl, hl
    000014A0 29               [ 8] 4407 	add	hl, hl
    000014A1 11r00r00         [12] 4408 	ld	de, #_shadow_OAM
    000014A4 19               [ 8] 4409 	add	hl, de
                                   4410 ;/home/enne2/.local/gbdk/include/gb/gb.h:1974: itm->y=y, itm->x=x;
    000014A5 AF               [ 4] 4411 	xor	a, a
    000014A6 22               [ 8] 4412 	ld	(hl+), a
    000014A7 77               [ 8] 4413 	ld	(hl), a
                                   4414 ;src/rat.c:375: move_sprite(rats[i].sprite_base_idx + 1, 0, 0);
    000014A8 18 03            [12] 4415 	jr	00116$
    000014AA                       4416 00102$:
                                   4417 ;src/rat.c:377: active_count++;
    000014AA F8 06            [12] 4418 	ldhl	sp,	#6
    000014AC 34               [12] 4419 	inc	(hl)
    000014AD                       4420 00116$:
                                   4421 ;src/rat.c:367: for (uint8_t i = 0; i < MAX_RATS; i++) {
    000014AD F8 07            [12] 4422 	ldhl	sp,	#7
    000014AF 34               [12] 4423 	inc	(hl)
    000014B0 C3r18r14         [16] 4424 	jp	00115$
    000014B3                       4425 00109$:
                                   4426 ;src/rat.c:381: if (active_count == 0) {
    000014B3 F8 06            [12] 4427 	ldhl	sp,	#6
    000014B5 7E               [ 8] 4428 	ld	a, (hl)
    000014B6 B7               [ 4] 4429 	or	a, a
    000014B7 20 05            [12] 4430 	jr	NZ, 00117$
                                   4431 ;src/rat.c:382: victory_flag = 1;
    000014B9 21r01r00         [12] 4432 	ld	hl, #_victory_flag
    000014BC 36 01            [12] 4433 	ld	(hl), #0x01
    000014BE                       4434 00117$:
                                   4435 ;src/rat.c:384: }
    000014BE E8 08            [16] 4436 	add	sp, #8
    000014C0 C9               [16] 4437 	ret
                                   4438 	.area _CODE
                                   4439 	.area _INITIALIZER
    00000000                       4440 __xinit__game_over_flag:
    00000000 00                    4441 	.db #0x00	; 0
    00000001                       4442 __xinit__victory_flag:
    00000001 00                    4443 	.db #0x00	; 0
                                   4444 	.area _CABS (ABS)
